ARM GAS  C:\Users\karth\AppData\Local\Temp\ccX3KBuT.s 			page 1


   1              		.syntax unified
   2              		.cpu cortex-m3
   3              		.fpu softvfp
   4              		.eabi_attribute 20, 1
   5              		.eabi_attribute 21, 1
   6              		.eabi_attribute 23, 3
   7              		.eabi_attribute 24, 1
   8              		.eabi_attribute 25, 1
   9              		.eabi_attribute 26, 1
  10              		.eabi_attribute 30, 1
  11              		.eabi_attribute 34, 1
  12              		.eabi_attribute 18, 4
  13              		.thumb
  14              		.syntax unified
  15              		.file	"ADC_1.c"
  16              		.text
  17              	.Ltext0:
  18              		.cfi_sections	.debug_frame
  19              		.section	.text.ADC_1_GainCompensation,"ax",%progbits
  20              		.align	2
  21              		.thumb
  22              		.thumb_func
  23              		.type	ADC_1_GainCompensation, %function
  24              	ADC_1_GainCompensation:
  25              	.LFB21:
  26              		.file 1 "Generated_Source\\PSoC5\\ADC_1.c"
   1:Generated_Source\PSoC5/ADC_1.c **** /*******************************************************************************
   2:Generated_Source\PSoC5/ADC_1.c **** * File Name: ADC_1.c
   3:Generated_Source\PSoC5/ADC_1.c **** * Version 3.20
   4:Generated_Source\PSoC5/ADC_1.c **** *
   5:Generated_Source\PSoC5/ADC_1.c **** * Description:
   6:Generated_Source\PSoC5/ADC_1.c **** *  This file provides the source code to the API for the Delta-Sigma ADC
   7:Generated_Source\PSoC5/ADC_1.c **** *  Component.
   8:Generated_Source\PSoC5/ADC_1.c **** *
   9:Generated_Source\PSoC5/ADC_1.c **** * Note:
  10:Generated_Source\PSoC5/ADC_1.c **** *
  11:Generated_Source\PSoC5/ADC_1.c **** ********************************************************************************
  12:Generated_Source\PSoC5/ADC_1.c **** * Copyright 2008-2015, Cypress Semiconductor Corporation.  All rights reserved.
  13:Generated_Source\PSoC5/ADC_1.c **** * You may use this file only in accordance with the license, terms, conditions,
  14:Generated_Source\PSoC5/ADC_1.c **** * disclaimers, and limitations in the end user license agreement accompanying
  15:Generated_Source\PSoC5/ADC_1.c **** * the software package with which this file was provided.
  16:Generated_Source\PSoC5/ADC_1.c **** *******************************************************************************/
  17:Generated_Source\PSoC5/ADC_1.c **** 
  18:Generated_Source\PSoC5/ADC_1.c **** #include "ADC_1.h"
  19:Generated_Source\PSoC5/ADC_1.c **** 
  20:Generated_Source\PSoC5/ADC_1.c **** #if(ADC_1_DEFAULT_INTERNAL_CLK)
  21:Generated_Source\PSoC5/ADC_1.c ****     #include "ADC_1_theACLK.h"
  22:Generated_Source\PSoC5/ADC_1.c **** #endif /* ADC_1_DEFAULT_INTERNAL_CLK */
  23:Generated_Source\PSoC5/ADC_1.c **** 
  24:Generated_Source\PSoC5/ADC_1.c **** #include "ADC_1_Ext_CP_Clk.h"
  25:Generated_Source\PSoC5/ADC_1.c **** 
  26:Generated_Source\PSoC5/ADC_1.c **** #if(ADC_1_DEFAULT_INPUT_MODE)
  27:Generated_Source\PSoC5/ADC_1.c ****     #include "ADC_1_AMux.h"
  28:Generated_Source\PSoC5/ADC_1.c **** #endif /* ADC_1_DEFAULT_INPUT_MODE */
  29:Generated_Source\PSoC5/ADC_1.c **** 
  30:Generated_Source\PSoC5/ADC_1.c **** 
  31:Generated_Source\PSoC5/ADC_1.c **** /***************************************
ARM GAS  C:\Users\karth\AppData\Local\Temp\ccX3KBuT.s 			page 2


  32:Generated_Source\PSoC5/ADC_1.c **** * Global data allocation
  33:Generated_Source\PSoC5/ADC_1.c **** ***************************************/
  34:Generated_Source\PSoC5/ADC_1.c **** 
  35:Generated_Source\PSoC5/ADC_1.c **** /* Software flag for checking conversion completed or not */
  36:Generated_Source\PSoC5/ADC_1.c **** volatile uint8 ADC_1_convDone = 0u;
  37:Generated_Source\PSoC5/ADC_1.c **** 
  38:Generated_Source\PSoC5/ADC_1.c **** /* Software flag to stop conversion for single sample conversion mode
  39:Generated_Source\PSoC5/ADC_1.c **** *   with resolution above 16 bits 
  40:Generated_Source\PSoC5/ADC_1.c **** */
  41:Generated_Source\PSoC5/ADC_1.c **** volatile uint8 ADC_1_stopConversion = 0u;
  42:Generated_Source\PSoC5/ADC_1.c **** 
  43:Generated_Source\PSoC5/ADC_1.c **** /* To run the initialization block only at the start up */
  44:Generated_Source\PSoC5/ADC_1.c **** uint8 ADC_1_initVar = 0u;
  45:Generated_Source\PSoC5/ADC_1.c **** 
  46:Generated_Source\PSoC5/ADC_1.c **** /* To check whether ADC started or not before switching the configuration */
  47:Generated_Source\PSoC5/ADC_1.c **** volatile uint8 ADC_1_started = 0u;
  48:Generated_Source\PSoC5/ADC_1.c **** 
  49:Generated_Source\PSoC5/ADC_1.c **** /* Flag to hold ADC config number. By default active config is 1. */
  50:Generated_Source\PSoC5/ADC_1.c **** volatile uint8 ADC_1_Config = 1u;
  51:Generated_Source\PSoC5/ADC_1.c **** 
  52:Generated_Source\PSoC5/ADC_1.c **** volatile int32 ADC_1_Offset;
  53:Generated_Source\PSoC5/ADC_1.c **** volatile int32 ADC_1_CountsPerVolt;
  54:Generated_Source\PSoC5/ADC_1.c **** 
  55:Generated_Source\PSoC5/ADC_1.c **** 
  56:Generated_Source\PSoC5/ADC_1.c **** /***************************************
  57:Generated_Source\PSoC5/ADC_1.c **** * Local data allocation
  58:Generated_Source\PSoC5/ADC_1.c **** ***************************************/
  59:Generated_Source\PSoC5/ADC_1.c **** 
  60:Generated_Source\PSoC5/ADC_1.c **** /* The array with precalculated gain compensation coefficients */
  61:Generated_Source\PSoC5/ADC_1.c **** static ADC_1_GCOR_STRUCT ADC_1_gcor[ADC_1_DEFAULT_NUM_CONFIGS];
  62:Generated_Source\PSoC5/ADC_1.c **** 
  63:Generated_Source\PSoC5/ADC_1.c **** 
  64:Generated_Source\PSoC5/ADC_1.c **** 
  65:Generated_Source\PSoC5/ADC_1.c **** /***************************************
  66:Generated_Source\PSoC5/ADC_1.c **** * Forward function references
  67:Generated_Source\PSoC5/ADC_1.c **** ***************************************/
  68:Generated_Source\PSoC5/ADC_1.c **** static void ADC_1_InitConfig(uint8 config) ;
  69:Generated_Source\PSoC5/ADC_1.c **** static void ADC_1_GainCompensation(uint8 inputRange, uint16 idealDecGain, uint16 idealOddDecGain, 
  70:Generated_Source\PSoC5/ADC_1.c ****                             uint8 resolution, uint8 config) ;
  71:Generated_Source\PSoC5/ADC_1.c **** static void ADC_1_SetDSMRef0Reg(uint8 value) ;
  72:Generated_Source\PSoC5/ADC_1.c **** 
  73:Generated_Source\PSoC5/ADC_1.c **** 
  74:Generated_Source\PSoC5/ADC_1.c **** /******************************************************************************
  75:Generated_Source\PSoC5/ADC_1.c **** * Function Name: ADC_1_Init
  76:Generated_Source\PSoC5/ADC_1.c **** *******************************************************************************
  77:Generated_Source\PSoC5/ADC_1.c **** *
  78:Generated_Source\PSoC5/ADC_1.c **** * Summary:
  79:Generated_Source\PSoC5/ADC_1.c **** *  Initialize component's parameters to the parameters set by user in the
  80:Generated_Source\PSoC5/ADC_1.c **** *  customizer of the component placed onto schematic. Usually called in
  81:Generated_Source\PSoC5/ADC_1.c **** * ADC_1_Start().
  82:Generated_Source\PSoC5/ADC_1.c **** *
  83:Generated_Source\PSoC5/ADC_1.c **** *
  84:Generated_Source\PSoC5/ADC_1.c **** * Parameters:
  85:Generated_Source\PSoC5/ADC_1.c **** *  None
  86:Generated_Source\PSoC5/ADC_1.c **** *
  87:Generated_Source\PSoC5/ADC_1.c **** * Return:
  88:Generated_Source\PSoC5/ADC_1.c **** *  None
ARM GAS  C:\Users\karth\AppData\Local\Temp\ccX3KBuT.s 			page 3


  89:Generated_Source\PSoC5/ADC_1.c **** *
  90:Generated_Source\PSoC5/ADC_1.c **** *******************************************************************************/
  91:Generated_Source\PSoC5/ADC_1.c **** void ADC_1_Init(void) 
  92:Generated_Source\PSoC5/ADC_1.c **** {
  93:Generated_Source\PSoC5/ADC_1.c **** 
  94:Generated_Source\PSoC5/ADC_1.c ****     ADC_1_Config = 1u;
  95:Generated_Source\PSoC5/ADC_1.c ****     ADC_1_convDone = 0u;
  96:Generated_Source\PSoC5/ADC_1.c **** 
  97:Generated_Source\PSoC5/ADC_1.c ****     ADC_1_Ext_CP_Clk_SetMode(CYCLK_DUTY);
  98:Generated_Source\PSoC5/ADC_1.c **** 
  99:Generated_Source\PSoC5/ADC_1.c ****     /* This is only valid if there is an internal clock */
 100:Generated_Source\PSoC5/ADC_1.c ****     #if(ADC_1_DEFAULT_INTERNAL_CLK)
 101:Generated_Source\PSoC5/ADC_1.c ****         ADC_1_theACLK_SetMode(CYCLK_DUTY);
 102:Generated_Source\PSoC5/ADC_1.c ****     #endif /* ADC_1_DEFAULT_INTERNAL_CLK */
 103:Generated_Source\PSoC5/ADC_1.c **** 
 104:Generated_Source\PSoC5/ADC_1.c ****     #if(ADC_1_IRQ_REMOVE == 0u)
 105:Generated_Source\PSoC5/ADC_1.c ****         /* Set interrupt priority */
 106:Generated_Source\PSoC5/ADC_1.c ****         CyIntSetPriority(ADC_1_INTC_NUMBER, ADC_1_INTC_PRIOR_NUMBER);
 107:Generated_Source\PSoC5/ADC_1.c ****     #endif   /* End ADC_1_IRQ_REMOVE */
 108:Generated_Source\PSoC5/ADC_1.c **** 
 109:Generated_Source\PSoC5/ADC_1.c ****     /* Init static registers with common configuration */
 110:Generated_Source\PSoC5/ADC_1.c ****     ADC_1_DSM_DEM0_REG    = ADC_1_CFG1_DSM_DEM0;
 111:Generated_Source\PSoC5/ADC_1.c ****     ADC_1_DSM_DEM1_REG    = ADC_1_CFG1_DSM_DEM1;
 112:Generated_Source\PSoC5/ADC_1.c ****     ADC_1_DSM_MISC_REG    = ADC_1_CFG1_DSM_MISC;
 113:Generated_Source\PSoC5/ADC_1.c ****     ADC_1_DSM_CLK_REG    |= ADC_1_CFG1_DSM_CLK;
 114:Generated_Source\PSoC5/ADC_1.c ****     ADC_1_DSM_REF1_REG    = ADC_1_CFG1_DSM_REF1;
 115:Generated_Source\PSoC5/ADC_1.c **** 
 116:Generated_Source\PSoC5/ADC_1.c ****     ADC_1_DSM_OUT0_REG    = ADC_1_CFG1_DSM_OUT0;
 117:Generated_Source\PSoC5/ADC_1.c ****     ADC_1_DSM_OUT1_REG    = ADC_1_CFG1_DSM_OUT1;
 118:Generated_Source\PSoC5/ADC_1.c **** 
 119:Generated_Source\PSoC5/ADC_1.c ****     ADC_1_DSM_CR0_REG     = ADC_1_CFG1_DSM_CR0;
 120:Generated_Source\PSoC5/ADC_1.c ****     ADC_1_DSM_CR1_REG     = ADC_1_CFG1_DSM_CR1;
 121:Generated_Source\PSoC5/ADC_1.c **** #if(ADC_1_MI_ENABLE != 0u) /* Enable Modulator Input */
 122:Generated_Source\PSoC5/ADC_1.c ****     ADC_1_DSM_CR3_REG     |= ADC_1_DSM_MODBIT_EN;
 123:Generated_Source\PSoC5/ADC_1.c **** #else
 124:Generated_Source\PSoC5/ADC_1.c ****     ADC_1_DSM_CR3_REG     = ADC_1_CFG1_DSM_CR3;
 125:Generated_Source\PSoC5/ADC_1.c **** #endif /* ADC_1_MI_ENABLE != 0u*/    
 126:Generated_Source\PSoC5/ADC_1.c ****     ADC_1_DSM_CR8_REG     = ADC_1_CFG1_DSM_CR8;
 127:Generated_Source\PSoC5/ADC_1.c ****     ADC_1_DSM_CR9_REG     = ADC_1_CFG1_DSM_CR9;
 128:Generated_Source\PSoC5/ADC_1.c ****     ADC_1_DSM_CR13_REG    = ADC_1_CFG1_DSM_CR13;
 129:Generated_Source\PSoC5/ADC_1.c **** 
 130:Generated_Source\PSoC5/ADC_1.c ****     ADC_1_DEC_SR_REG      = ADC_1_CFG1_DEC_SR;
 131:Generated_Source\PSoC5/ADC_1.c **** 
 132:Generated_Source\PSoC5/ADC_1.c ****     /* Calculate Gain compensation coefficients for all configurations */
 133:Generated_Source\PSoC5/ADC_1.c ****     ADC_1_GainCompensation(ADC_1_CFG1_INPUT_RANGE,
 134:Generated_Source\PSoC5/ADC_1.c ****                                       ADC_1_CFG1_IDEAL_DEC_GAIN,
 135:Generated_Source\PSoC5/ADC_1.c ****                                       ADC_1_CFG1_IDEAL_ODDDEC_GAIN,
 136:Generated_Source\PSoC5/ADC_1.c ****                                       ADC_1_CFG1_RESOLUTION,
 137:Generated_Source\PSoC5/ADC_1.c ****                                       ADC_1_CFG1);
 138:Generated_Source\PSoC5/ADC_1.c ****     #if(ADC_1_DEFAULT_NUM_CONFIGS > 1)
 139:Generated_Source\PSoC5/ADC_1.c ****         ADC_1_GainCompensation(ADC_1_CFG2_INPUT_RANGE,
 140:Generated_Source\PSoC5/ADC_1.c ****                                           ADC_1_CFG2_IDEAL_DEC_GAIN,
 141:Generated_Source\PSoC5/ADC_1.c ****                                           ADC_1_CFG2_IDEAL_ODDDEC_GAIN,
 142:Generated_Source\PSoC5/ADC_1.c ****                                           ADC_1_CFG2_RESOLUTION,
 143:Generated_Source\PSoC5/ADC_1.c ****                                           ADC_1_CFG2);
 144:Generated_Source\PSoC5/ADC_1.c ****     #endif /* ADC_1_DEFAULT_NUM_CONFIGS > 1 */
 145:Generated_Source\PSoC5/ADC_1.c ****     #if(ADC_1_DEFAULT_NUM_CONFIGS > 2)
ARM GAS  C:\Users\karth\AppData\Local\Temp\ccX3KBuT.s 			page 4


 146:Generated_Source\PSoC5/ADC_1.c ****         ADC_1_GainCompensation(ADC_1_CFG3_INPUT_RANGE,
 147:Generated_Source\PSoC5/ADC_1.c ****                                           ADC_1_CFG3_IDEAL_DEC_GAIN,
 148:Generated_Source\PSoC5/ADC_1.c ****                                           ADC_1_CFG3_IDEAL_ODDDEC_GAIN,
 149:Generated_Source\PSoC5/ADC_1.c ****                                           ADC_1_CFG3_RESOLUTION,
 150:Generated_Source\PSoC5/ADC_1.c ****                                           ADC_1_CFG3);
 151:Generated_Source\PSoC5/ADC_1.c ****     #endif /* ADC_1_DEFAULT_NUM_CONFIGS > 2 */
 152:Generated_Source\PSoC5/ADC_1.c ****     #if(ADC_1_DEFAULT_NUM_CONFIGS > 3)
 153:Generated_Source\PSoC5/ADC_1.c ****         ADC_1_GainCompensation(ADC_1_CFG4_INPUT_RANGE,
 154:Generated_Source\PSoC5/ADC_1.c ****                                           ADC_1_CFG4_IDEAL_DEC_GAIN,
 155:Generated_Source\PSoC5/ADC_1.c ****                                           ADC_1_CFG4_IDEAL_ODDDEC_GAIN,
 156:Generated_Source\PSoC5/ADC_1.c ****                                           ADC_1_CFG4_RESOLUTION,
 157:Generated_Source\PSoC5/ADC_1.c ****                                           ADC_1_CFG4);
 158:Generated_Source\PSoC5/ADC_1.c ****     #endif /* ADC_1_DEFAULT_NUM_CONFIGS > 3 */
 159:Generated_Source\PSoC5/ADC_1.c **** 
 160:Generated_Source\PSoC5/ADC_1.c ****     /* Set GCOR register for config1 */
 161:Generated_Source\PSoC5/ADC_1.c ****     ADC_1_DEC_GVAL_REG = ADC_1_gcor[ADC_1_Config - 1u].gval;
 162:Generated_Source\PSoC5/ADC_1.c ****     CY_SET_REG16(ADC_1_DEC_GCOR_16B_PTR, ADC_1_gcor[ADC_1_Config - 1u].gcor);
 163:Generated_Source\PSoC5/ADC_1.c **** 
 164:Generated_Source\PSoC5/ADC_1.c ****     /* Initialize the registers with default customizer settings for config1 */
 165:Generated_Source\PSoC5/ADC_1.c ****     ADC_1_InitConfig(ADC_1_Config);
 166:Generated_Source\PSoC5/ADC_1.c **** }
 167:Generated_Source\PSoC5/ADC_1.c **** 
 168:Generated_Source\PSoC5/ADC_1.c **** 
 169:Generated_Source\PSoC5/ADC_1.c **** /******************************************************************************
 170:Generated_Source\PSoC5/ADC_1.c **** * Function Name: ADC_1_Enable
 171:Generated_Source\PSoC5/ADC_1.c **** *******************************************************************************
 172:Generated_Source\PSoC5/ADC_1.c **** *
 173:Generated_Source\PSoC5/ADC_1.c **** * Summary:
 174:Generated_Source\PSoC5/ADC_1.c **** *  Enables the ADC DelSig block operation.
 175:Generated_Source\PSoC5/ADC_1.c **** *
 176:Generated_Source\PSoC5/ADC_1.c **** *
 177:Generated_Source\PSoC5/ADC_1.c **** * Parameters:
 178:Generated_Source\PSoC5/ADC_1.c **** *  None
 179:Generated_Source\PSoC5/ADC_1.c **** *
 180:Generated_Source\PSoC5/ADC_1.c **** * Return:
 181:Generated_Source\PSoC5/ADC_1.c **** *  None
 182:Generated_Source\PSoC5/ADC_1.c **** *
 183:Generated_Source\PSoC5/ADC_1.c **** *******************************************************************************/
 184:Generated_Source\PSoC5/ADC_1.c **** void ADC_1_Enable(void) 
 185:Generated_Source\PSoC5/ADC_1.c **** {
 186:Generated_Source\PSoC5/ADC_1.c **** 	uint8 config;
 187:Generated_Source\PSoC5/ADC_1.c ****     uint8 enableInterrupts;
 188:Generated_Source\PSoC5/ADC_1.c ****     enableInterrupts = CyEnterCriticalSection();
 189:Generated_Source\PSoC5/ADC_1.c **** 
 190:Generated_Source\PSoC5/ADC_1.c ****     /* Read volatile variable to the local variable */
 191:Generated_Source\PSoC5/ADC_1.c ****     config = ADC_1_Config;
 192:Generated_Source\PSoC5/ADC_1.c ****     
 193:Generated_Source\PSoC5/ADC_1.c ****     /* Enable active mode power for ADC */
 194:Generated_Source\PSoC5/ADC_1.c ****     ADC_1_PWRMGR_DEC_REG |= ADC_1_ACT_PWR_DEC_EN;
 195:Generated_Source\PSoC5/ADC_1.c ****     ADC_1_PWRMGR_DSM_REG |= ADC_1_ACT_PWR_DSM_EN;
 196:Generated_Source\PSoC5/ADC_1.c **** 
 197:Generated_Source\PSoC5/ADC_1.c ****      /* Enable alternative active mode power for ADC */
 198:Generated_Source\PSoC5/ADC_1.c ****     ADC_1_STBY_PWRMGR_DEC_REG |= ADC_1_STBY_PWR_DEC_EN;
 199:Generated_Source\PSoC5/ADC_1.c ****     ADC_1_STBY_PWRMGR_DSM_REG |= ADC_1_STBY_PWR_DSM_EN;
 200:Generated_Source\PSoC5/ADC_1.c **** 
 201:Generated_Source\PSoC5/ADC_1.c ****     /* Disable PRES, Enable power to VCMBUF0, REFBUF0 and REFBUF1, enable PRES */
 202:Generated_Source\PSoC5/ADC_1.c ****     ADC_1_RESET_CR4_REG |= ADC_1_IGNORE_PRESA1;
ARM GAS  C:\Users\karth\AppData\Local\Temp\ccX3KBuT.s 			page 5


 203:Generated_Source\PSoC5/ADC_1.c ****     ADC_1_RESET_CR5_REG |= ADC_1_IGNORE_PRESA2;
 204:Generated_Source\PSoC5/ADC_1.c **** 
 205:Generated_Source\PSoC5/ADC_1.c ****     ADC_1_DSM_CR17_REG |= (ADC_1_DSM_EN_BUF_VREF | ADC_1_DSM_EN_BUF_VCM);
 206:Generated_Source\PSoC5/ADC_1.c **** 
 207:Generated_Source\PSoC5/ADC_1.c ****     /* Code to disable the REFBUF0 if reference chosen is External ref */
 208:Generated_Source\PSoC5/ADC_1.c ****     #if (((ADC_1_CFG1_REFERENCE == ADC_1_EXT_REF_ON_P03) || \
 209:Generated_Source\PSoC5/ADC_1.c ****           (ADC_1_CFG1_REFERENCE == ADC_1_EXT_REF_ON_P32)) || \
 210:Generated_Source\PSoC5/ADC_1.c ****          ((ADC_1_DEFAULT_NUM_CONFIGS > 1) && \
 211:Generated_Source\PSoC5/ADC_1.c ****           ((ADC_1_CFG2_REFERENCE == ADC_1_EXT_REF_ON_P03) ||  \
 212:Generated_Source\PSoC5/ADC_1.c ****            (ADC_1_CFG2_REFERENCE == ADC_1_EXT_REF_ON_P32))) || \
 213:Generated_Source\PSoC5/ADC_1.c ****          ((ADC_1_DEFAULT_NUM_CONFIGS > 2) && \
 214:Generated_Source\PSoC5/ADC_1.c ****           ((ADC_1_CFG3_REFERENCE == ADC_1_EXT_REF_ON_P03) ||  \
 215:Generated_Source\PSoC5/ADC_1.c ****            (ADC_1_CFG3_REFERENCE == ADC_1_EXT_REF_ON_P32))) || \
 216:Generated_Source\PSoC5/ADC_1.c ****          ((ADC_1_DEFAULT_NUM_CONFIGS > 3) && \
 217:Generated_Source\PSoC5/ADC_1.c ****           ((ADC_1_CFG4_REFERENCE == ADC_1_EXT_REF_ON_P03) || \
 218:Generated_Source\PSoC5/ADC_1.c ****            (ADC_1_CFG4_REFERENCE == ADC_1_EXT_REF_ON_P32))))
 219:Generated_Source\PSoC5/ADC_1.c ****         if (((config == 1u) &&
 220:Generated_Source\PSoC5/ADC_1.c ****             ((ADC_1_CFG1_REFERENCE == ADC_1_EXT_REF_ON_P03) ||
 221:Generated_Source\PSoC5/ADC_1.c ****              (ADC_1_CFG1_REFERENCE == ADC_1_EXT_REF_ON_P32))) ||
 222:Generated_Source\PSoC5/ADC_1.c ****             ((config == 2u) &&
 223:Generated_Source\PSoC5/ADC_1.c ****             ((ADC_1_CFG2_REFERENCE == ADC_1_EXT_REF_ON_P03) ||
 224:Generated_Source\PSoC5/ADC_1.c ****              (ADC_1_CFG2_REFERENCE == ADC_1_EXT_REF_ON_P32))) ||
 225:Generated_Source\PSoC5/ADC_1.c ****             ((config == 3u) &&
 226:Generated_Source\PSoC5/ADC_1.c ****             ((ADC_1_CFG3_REFERENCE == ADC_1_EXT_REF_ON_P03) ||
 227:Generated_Source\PSoC5/ADC_1.c ****              (ADC_1_CFG3_REFERENCE == ADC_1_EXT_REF_ON_P32))) ||
 228:Generated_Source\PSoC5/ADC_1.c ****             ((config == 4u) &&
 229:Generated_Source\PSoC5/ADC_1.c ****             ((ADC_1_CFG4_REFERENCE == ADC_1_EXT_REF_ON_P03) ||
 230:Generated_Source\PSoC5/ADC_1.c ****              (ADC_1_CFG4_REFERENCE == ADC_1_EXT_REF_ON_P32))))
 231:Generated_Source\PSoC5/ADC_1.c ****         {
 232:Generated_Source\PSoC5/ADC_1.c ****             /* Disable the REFBUF0 */
 233:Generated_Source\PSoC5/ADC_1.c ****             ADC_1_DSM_CR17_REG &= (uint8)~ADC_1_DSM_EN_BUF_VREF;
 234:Generated_Source\PSoC5/ADC_1.c ****         }
 235:Generated_Source\PSoC5/ADC_1.c ****     #endif /* External ref */
 236:Generated_Source\PSoC5/ADC_1.c **** 
 237:Generated_Source\PSoC5/ADC_1.c ****     #if (((ADC_1_CFG1_INPUT_RANGE == ADC_1_IR_VSSA_TO_2VREF) || \
 238:Generated_Source\PSoC5/ADC_1.c ****          ((ADC_1_DEFAULT_NUM_CONFIGS > 1) && \
 239:Generated_Source\PSoC5/ADC_1.c ****           (ADC_1_CFG2_INPUT_RANGE == ADC_1_IR_VSSA_TO_2VREF)) || \
 240:Generated_Source\PSoC5/ADC_1.c ****          ((ADC_1_DEFAULT_NUM_CONFIGS > 2) && \
 241:Generated_Source\PSoC5/ADC_1.c ****           (ADC_1_CFG3_INPUT_RANGE == ADC_1_IR_VSSA_TO_2VREF)) || \
 242:Generated_Source\PSoC5/ADC_1.c ****          ((ADC_1_DEFAULT_NUM_CONFIGS > 3) && \
 243:Generated_Source\PSoC5/ADC_1.c ****           (ADC_1_CFG4_INPUT_RANGE == ADC_1_IR_VSSA_TO_2VREF))))
 244:Generated_Source\PSoC5/ADC_1.c ****         if(((config == 1u) &&
 245:Generated_Source\PSoC5/ADC_1.c ****             (ADC_1_CFG1_INPUT_RANGE == ADC_1_IR_VSSA_TO_2VREF) &&
 246:Generated_Source\PSoC5/ADC_1.c ****             ((ADC_1_CFG1_REFERENCE != ADC_1_EXT_REF_ON_P03) &&
 247:Generated_Source\PSoC5/ADC_1.c ****              (ADC_1_CFG1_REFERENCE != ADC_1_EXT_REF_ON_P32))) ||
 248:Generated_Source\PSoC5/ADC_1.c ****              ((config == 2u) &&
 249:Generated_Source\PSoC5/ADC_1.c ****               (ADC_1_CFG2_INPUT_RANGE == ADC_1_IR_VSSA_TO_2VREF) &&
 250:Generated_Source\PSoC5/ADC_1.c ****              ((ADC_1_CFG2_REFERENCE != ADC_1_EXT_REF_ON_P03) &&
 251:Generated_Source\PSoC5/ADC_1.c ****              (ADC_1_CFG2_REFERENCE != ADC_1_EXT_REF_ON_P32))) ||
 252:Generated_Source\PSoC5/ADC_1.c ****              ((config == 3u) &&
 253:Generated_Source\PSoC5/ADC_1.c ****               (ADC_1_CFG3_INPUT_RANGE == ADC_1_IR_VSSA_TO_2VREF) &&
 254:Generated_Source\PSoC5/ADC_1.c ****              ((ADC_1_CFG3_REFERENCE != ADC_1_EXT_REF_ON_P03) &&
 255:Generated_Source\PSoC5/ADC_1.c ****              (ADC_1_CFG3_REFERENCE != ADC_1_EXT_REF_ON_P32))) ||
 256:Generated_Source\PSoC5/ADC_1.c ****              ((config == 4u) &&
 257:Generated_Source\PSoC5/ADC_1.c ****               (ADC_1_CFG4_INPUT_RANGE == ADC_1_IR_VSSA_TO_2VREF) &&
 258:Generated_Source\PSoC5/ADC_1.c ****              ((ADC_1_CFG4_REFERENCE != ADC_1_EXT_REF_ON_P03) &&
 259:Generated_Source\PSoC5/ADC_1.c ****              (ADC_1_CFG4_REFERENCE != ADC_1_EXT_REF_ON_P32))))
ARM GAS  C:\Users\karth\AppData\Local\Temp\ccX3KBuT.s 			page 6


 260:Generated_Source\PSoC5/ADC_1.c ****         {
 261:Generated_Source\PSoC5/ADC_1.c ****             /* Enable the REFBUF1 */
 262:Generated_Source\PSoC5/ADC_1.c ****             ADC_1_DSM_REF0_REG |= ADC_1_DSM_EN_BUF_VREF_INN;
 263:Generated_Source\PSoC5/ADC_1.c ****         }
 264:Generated_Source\PSoC5/ADC_1.c ****     #endif /* VSSA_TO_2VREF */
 265:Generated_Source\PSoC5/ADC_1.c ****     if(config != 0u)
 266:Generated_Source\PSoC5/ADC_1.c ****     {
 267:Generated_Source\PSoC5/ADC_1.c ****         /* Suppress compiler warning */
 268:Generated_Source\PSoC5/ADC_1.c ****     }
 269:Generated_Source\PSoC5/ADC_1.c **** 
 270:Generated_Source\PSoC5/ADC_1.c ****     /* Wait for 3 microseconds */
 271:Generated_Source\PSoC5/ADC_1.c ****     CyDelayUs(ADC_1_PRES_DELAY_TIME);
 272:Generated_Source\PSoC5/ADC_1.c **** 
 273:Generated_Source\PSoC5/ADC_1.c ****     /* Enable the press circuit */
 274:Generated_Source\PSoC5/ADC_1.c ****     ADC_1_RESET_CR4_REG &= (uint8)~ADC_1_IGNORE_PRESA1;
 275:Generated_Source\PSoC5/ADC_1.c ****     ADC_1_RESET_CR5_REG &= (uint8)~ADC_1_IGNORE_PRESA2;
 276:Generated_Source\PSoC5/ADC_1.c **** 
 277:Generated_Source\PSoC5/ADC_1.c ****     /* Enable negative pumps for DSM  */
 278:Generated_Source\PSoC5/ADC_1.c ****     ADC_1_PUMP_CR1_REG  |= ( ADC_1_PUMP_CR1_CLKSEL | ADC_1_PUMP_CR1_FORCE );
 279:Generated_Source\PSoC5/ADC_1.c **** 
 280:Generated_Source\PSoC5/ADC_1.c ****     /* Enable Modulator Chopping if required */
 281:Generated_Source\PSoC5/ADC_1.c ****     ADC_1_DSM_CR2_REG = ADC_1_CFG1_DSM_CR2;
 282:Generated_Source\PSoC5/ADC_1.c **** 
 283:Generated_Source\PSoC5/ADC_1.c ****     /* This is only valid if there is an internal clock */
 284:Generated_Source\PSoC5/ADC_1.c ****     #if(ADC_1_DEFAULT_INTERNAL_CLK)
 285:Generated_Source\PSoC5/ADC_1.c ****         ADC_1_PWRMGR_CLK_REG |= ADC_1_ACT_PWR_CLK_EN;
 286:Generated_Source\PSoC5/ADC_1.c ****         ADC_1_STBY_PWRMGR_CLK_REG |= ADC_1_STBY_PWR_CLK_EN;
 287:Generated_Source\PSoC5/ADC_1.c ****     #endif /* ADC_1_DEFAULT_INTERNAL_CLK */
 288:Generated_Source\PSoC5/ADC_1.c **** 
 289:Generated_Source\PSoC5/ADC_1.c ****     /* Enable the active and alternate active power for charge pump clock */
 290:Generated_Source\PSoC5/ADC_1.c ****     ADC_1_PWRMGR_CHARGE_PUMP_CLK_REG |= ADC_1_ACT_PWR_CHARGE_PUMP_CLK_EN;
 291:Generated_Source\PSoC5/ADC_1.c ****     ADC_1_STBY_PWRMGR_CHARGE_PUMP_CLK_REG |= ADC_1_STBY_PWR_CHARGE_PUMP_CLK_EN;
 292:Generated_Source\PSoC5/ADC_1.c **** 
 293:Generated_Source\PSoC5/ADC_1.c ****     #if(ADC_1_IRQ_REMOVE == 0u)
 294:Generated_Source\PSoC5/ADC_1.c ****         /* Clear a pending interrupt */
 295:Generated_Source\PSoC5/ADC_1.c ****         CyIntClearPending(ADC_1_INTC_NUMBER);
 296:Generated_Source\PSoC5/ADC_1.c ****         /* Enable interrupt */
 297:Generated_Source\PSoC5/ADC_1.c ****         CyIntEnable(ADC_1_INTC_NUMBER);
 298:Generated_Source\PSoC5/ADC_1.c ****     #endif   /* End ADC_1_IRQ_REMOVE */
 299:Generated_Source\PSoC5/ADC_1.c **** 
 300:Generated_Source\PSoC5/ADC_1.c ****     CyExitCriticalSection(enableInterrupts);
 301:Generated_Source\PSoC5/ADC_1.c **** 
 302:Generated_Source\PSoC5/ADC_1.c **** }
 303:Generated_Source\PSoC5/ADC_1.c **** 
 304:Generated_Source\PSoC5/ADC_1.c **** 
 305:Generated_Source\PSoC5/ADC_1.c **** /*******************************************************************************
 306:Generated_Source\PSoC5/ADC_1.c **** * Function Name: ADC_1_Start
 307:Generated_Source\PSoC5/ADC_1.c **** ********************************************************************************
 308:Generated_Source\PSoC5/ADC_1.c **** *
 309:Generated_Source\PSoC5/ADC_1.c **** * Summary:
 310:Generated_Source\PSoC5/ADC_1.c **** *  Performs all required initialization for this component and enables
 311:Generated_Source\PSoC5/ADC_1.c **** *  the power. It configure all the register the first time it is called.
 312:Generated_Source\PSoC5/ADC_1.c **** *  Subsequent calls of the Start function only enable the ADC and turn
 313:Generated_Source\PSoC5/ADC_1.c **** *  on the power. If multiple configurations are selected, it will
 314:Generated_Source\PSoC5/ADC_1.c **** *  configure the ADC for configuration 1 by default, unless the
 315:Generated_Source\PSoC5/ADC_1.c **** *  ADC_1_SelectConfiguration( ) function has been called to change
 316:Generated_Source\PSoC5/ADC_1.c **** *  the default setting.
ARM GAS  C:\Users\karth\AppData\Local\Temp\ccX3KBuT.s 			page 7


 317:Generated_Source\PSoC5/ADC_1.c **** *
 318:Generated_Source\PSoC5/ADC_1.c **** * Parameters:
 319:Generated_Source\PSoC5/ADC_1.c **** *  None
 320:Generated_Source\PSoC5/ADC_1.c **** *
 321:Generated_Source\PSoC5/ADC_1.c **** * Return:
 322:Generated_Source\PSoC5/ADC_1.c **** *  None
 323:Generated_Source\PSoC5/ADC_1.c **** *
 324:Generated_Source\PSoC5/ADC_1.c **** * Global variables:
 325:Generated_Source\PSoC5/ADC_1.c **** *  ADC_1_initVar:  Used to check the initial configuration,
 326:Generated_Source\PSoC5/ADC_1.c **** *  modified when this function is called for the first time.
 327:Generated_Source\PSoC5/ADC_1.c **** *
 328:Generated_Source\PSoC5/ADC_1.c **** *******************************************************************************/
 329:Generated_Source\PSoC5/ADC_1.c **** void ADC_1_Start(void) 
 330:Generated_Source\PSoC5/ADC_1.c **** {
 331:Generated_Source\PSoC5/ADC_1.c ****     if(ADC_1_initVar == 0u)
 332:Generated_Source\PSoC5/ADC_1.c ****     {
 333:Generated_Source\PSoC5/ADC_1.c ****         if(ADC_1_started == 0u)
 334:Generated_Source\PSoC5/ADC_1.c ****         {
 335:Generated_Source\PSoC5/ADC_1.c ****             ADC_1_Init();
 336:Generated_Source\PSoC5/ADC_1.c ****         }
 337:Generated_Source\PSoC5/ADC_1.c ****         ADC_1_initVar = 1u;
 338:Generated_Source\PSoC5/ADC_1.c ****     }
 339:Generated_Source\PSoC5/ADC_1.c **** 
 340:Generated_Source\PSoC5/ADC_1.c ****     /* Enable the ADC */
 341:Generated_Source\PSoC5/ADC_1.c ****     ADC_1_Enable();
 342:Generated_Source\PSoC5/ADC_1.c **** }
 343:Generated_Source\PSoC5/ADC_1.c **** 
 344:Generated_Source\PSoC5/ADC_1.c **** 
 345:Generated_Source\PSoC5/ADC_1.c **** /*******************************************************************************
 346:Generated_Source\PSoC5/ADC_1.c **** * Function Name: ADC_1_Stop
 347:Generated_Source\PSoC5/ADC_1.c **** ********************************************************************************
 348:Generated_Source\PSoC5/ADC_1.c **** *
 349:Generated_Source\PSoC5/ADC_1.c **** * Summary:
 350:Generated_Source\PSoC5/ADC_1.c **** *  This function stops and powers down the ADC component and the internal
 351:Generated_Source\PSoC5/ADC_1.c **** *  clock if the external clock is not selected. If an external clock is
 352:Generated_Source\PSoC5/ADC_1.c **** *  used, it is up to the designer to power down the external clock it
 353:Generated_Source\PSoC5/ADC_1.c **** *  required.
 354:Generated_Source\PSoC5/ADC_1.c **** *
 355:Generated_Source\PSoC5/ADC_1.c **** * Parameters:
 356:Generated_Source\PSoC5/ADC_1.c **** *  None
 357:Generated_Source\PSoC5/ADC_1.c **** *
 358:Generated_Source\PSoC5/ADC_1.c **** * Return:
 359:Generated_Source\PSoC5/ADC_1.c **** *  None
 360:Generated_Source\PSoC5/ADC_1.c **** *
 361:Generated_Source\PSoC5/ADC_1.c **** *******************************************************************************/
 362:Generated_Source\PSoC5/ADC_1.c **** void ADC_1_Stop(void) 
 363:Generated_Source\PSoC5/ADC_1.c **** {
 364:Generated_Source\PSoC5/ADC_1.c ****     uint8 enableInterrupts;
 365:Generated_Source\PSoC5/ADC_1.c ****     enableInterrupts = CyEnterCriticalSection();
 366:Generated_Source\PSoC5/ADC_1.c **** 
 367:Generated_Source\PSoC5/ADC_1.c ****     /* Stop conversions */
 368:Generated_Source\PSoC5/ADC_1.c ****     ADC_1_DEC_CR_REG &= (uint8)~ADC_1_DEC_START_CONV;
 369:Generated_Source\PSoC5/ADC_1.c ****     ADC_1_DEC_SR_REG |=  ADC_1_DEC_INTR_CLEAR;
 370:Generated_Source\PSoC5/ADC_1.c **** 
 371:Generated_Source\PSoC5/ADC_1.c ****     /* Disable PRES, Disable power to VCMBUF0, REFBUF0 and REFBUF1,
 372:Generated_Source\PSoC5/ADC_1.c ****        enable PRES */
 373:Generated_Source\PSoC5/ADC_1.c ****     ADC_1_RESET_CR4_REG |= ADC_1_IGNORE_PRESA1;
ARM GAS  C:\Users\karth\AppData\Local\Temp\ccX3KBuT.s 			page 8


 374:Generated_Source\PSoC5/ADC_1.c ****     ADC_1_RESET_CR5_REG |= ADC_1_IGNORE_PRESA2;
 375:Generated_Source\PSoC5/ADC_1.c **** 
 376:Generated_Source\PSoC5/ADC_1.c ****     ADC_1_DSM_CR17_REG &= (uint8)~(ADC_1_DSM_EN_BUF_VREF | ADC_1_DSM_EN_BUF_VCM);
 377:Generated_Source\PSoC5/ADC_1.c ****     ADC_1_DSM_REF0_REG &= (uint8)~ADC_1_DSM_EN_BUF_VREF_INN;
 378:Generated_Source\PSoC5/ADC_1.c **** 
 379:Generated_Source\PSoC5/ADC_1.c ****     /* Wait for 3 microseconds. */
 380:Generated_Source\PSoC5/ADC_1.c ****     CyDelayUs(ADC_1_PRES_DELAY_TIME);
 381:Generated_Source\PSoC5/ADC_1.c **** 
 382:Generated_Source\PSoC5/ADC_1.c ****     /* Enable the press circuit */
 383:Generated_Source\PSoC5/ADC_1.c ****     ADC_1_RESET_CR4_REG &= (uint8)~ADC_1_IGNORE_PRESA1;
 384:Generated_Source\PSoC5/ADC_1.c ****     ADC_1_RESET_CR5_REG &= (uint8)~ADC_1_IGNORE_PRESA2;
 385:Generated_Source\PSoC5/ADC_1.c **** 
 386:Generated_Source\PSoC5/ADC_1.c ****     /* Disable power to the ADC */
 387:Generated_Source\PSoC5/ADC_1.c ****     ADC_1_PWRMGR_DSM_REG &= (uint8)~ADC_1_ACT_PWR_DSM_EN;
 388:Generated_Source\PSoC5/ADC_1.c **** 
 389:Generated_Source\PSoC5/ADC_1.c ****     /* Disable power to Decimator block */
 390:Generated_Source\PSoC5/ADC_1.c ****     ADC_1_PWRMGR_DEC_REG &= (uint8)~ADC_1_ACT_PWR_DEC_EN;
 391:Generated_Source\PSoC5/ADC_1.c **** 
 392:Generated_Source\PSoC5/ADC_1.c ****     /* Disable alternative active power to the ADC */
 393:Generated_Source\PSoC5/ADC_1.c ****     ADC_1_STBY_PWRMGR_DEC_REG &= (uint8)~ADC_1_STBY_PWR_DEC_EN;
 394:Generated_Source\PSoC5/ADC_1.c ****     ADC_1_STBY_PWRMGR_DSM_REG &= (uint8)~ADC_1_STBY_PWR_DSM_EN;
 395:Generated_Source\PSoC5/ADC_1.c **** 
 396:Generated_Source\PSoC5/ADC_1.c ****    /* Disable negative pumps for DSM  */
 397:Generated_Source\PSoC5/ADC_1.c ****     ADC_1_PUMP_CR1_REG &= (uint8)~(ADC_1_PUMP_CR1_CLKSEL | ADC_1_PUMP_CR1_FORCE );
 398:Generated_Source\PSoC5/ADC_1.c **** 
 399:Generated_Source\PSoC5/ADC_1.c ****     /* This is only valid if there is an internal clock */
 400:Generated_Source\PSoC5/ADC_1.c ****     #if(ADC_1_DEFAULT_INTERNAL_CLK)
 401:Generated_Source\PSoC5/ADC_1.c ****         ADC_1_PWRMGR_CLK_REG &= (uint8)~ADC_1_ACT_PWR_CLK_EN;
 402:Generated_Source\PSoC5/ADC_1.c ****         ADC_1_STBY_PWRMGR_CLK_REG &= (uint8)~ADC_1_STBY_PWR_CLK_EN;
 403:Generated_Source\PSoC5/ADC_1.c ****     #endif /* ADC_1_DEFAULT_INTERNAL_CLK */
 404:Generated_Source\PSoC5/ADC_1.c **** 
 405:Generated_Source\PSoC5/ADC_1.c ****     /* Disable Modulator Chopping */
 406:Generated_Source\PSoC5/ADC_1.c ****     ADC_1_DSM_CR2_REG &= (uint8)~ADC_1_DSM_MOD_CHOP_EN;
 407:Generated_Source\PSoC5/ADC_1.c ****     /* Disable power to charge pump clock */
 408:Generated_Source\PSoC5/ADC_1.c ****     ADC_1_PWRMGR_CHARGE_PUMP_CLK_REG &= (uint8)~ADC_1_ACT_PWR_CHARGE_PUMP_CLK_EN;
 409:Generated_Source\PSoC5/ADC_1.c ****     ADC_1_STBY_PWRMGR_CHARGE_PUMP_CLK_REG &= (uint8)~ADC_1_STBY_PWR_CHARGE_PUMP_CLK_EN;
 410:Generated_Source\PSoC5/ADC_1.c ****     
 411:Generated_Source\PSoC5/ADC_1.c ****     CyExitCriticalSection(enableInterrupts);
 412:Generated_Source\PSoC5/ADC_1.c **** }
 413:Generated_Source\PSoC5/ADC_1.c **** 
 414:Generated_Source\PSoC5/ADC_1.c **** 
 415:Generated_Source\PSoC5/ADC_1.c **** /*******************************************************************************
 416:Generated_Source\PSoC5/ADC_1.c **** * Function Name: ADC_1_SetBufferGain
 417:Generated_Source\PSoC5/ADC_1.c **** ********************************************************************************
 418:Generated_Source\PSoC5/ADC_1.c **** *
 419:Generated_Source\PSoC5/ADC_1.c **** * Summary:
 420:Generated_Source\PSoC5/ADC_1.c **** *  Sets input buffer gain.
 421:Generated_Source\PSoC5/ADC_1.c **** *
 422:Generated_Source\PSoC5/ADC_1.c **** * Parameters:
 423:Generated_Source\PSoC5/ADC_1.c **** *  gain:  Two bit value to select a gain of 1, 2, 4, or 8.
 424:Generated_Source\PSoC5/ADC_1.c **** *
 425:Generated_Source\PSoC5/ADC_1.c **** * Return:
 426:Generated_Source\PSoC5/ADC_1.c **** *  None
 427:Generated_Source\PSoC5/ADC_1.c **** *
 428:Generated_Source\PSoC5/ADC_1.c **** *******************************************************************************/
 429:Generated_Source\PSoC5/ADC_1.c **** void ADC_1_SetBufferGain(uint8 gain) 
 430:Generated_Source\PSoC5/ADC_1.c **** {
ARM GAS  C:\Users\karth\AppData\Local\Temp\ccX3KBuT.s 			page 9


 431:Generated_Source\PSoC5/ADC_1.c ****     uint8 tmpReg;
 432:Generated_Source\PSoC5/ADC_1.c ****     tmpReg = ADC_1_DSM_BUF1_REG & (uint8)~ADC_1_DSM_GAIN_MASK;
 433:Generated_Source\PSoC5/ADC_1.c ****     tmpReg |= (uint8)(gain << ADC_1_DSM_GAIN_SHIFT) & ADC_1_DSM_GAIN_MASK;
 434:Generated_Source\PSoC5/ADC_1.c ****     ADC_1_DSM_BUF1_REG = tmpReg;
 435:Generated_Source\PSoC5/ADC_1.c **** }
 436:Generated_Source\PSoC5/ADC_1.c **** 
 437:Generated_Source\PSoC5/ADC_1.c **** 
 438:Generated_Source\PSoC5/ADC_1.c **** /*******************************************************************************
 439:Generated_Source\PSoC5/ADC_1.c **** * Function Name: ADC_1_SetCoherency
 440:Generated_Source\PSoC5/ADC_1.c **** ********************************************************************************
 441:Generated_Source\PSoC5/ADC_1.c **** *
 442:Generated_Source\PSoC5/ADC_1.c **** * Summary:
 443:Generated_Source\PSoC5/ADC_1.c **** *  This function allows the user to change which of the ADC's 3 word
 444:Generated_Source\PSoC5/ADC_1.c **** *  result will trigger a coherency unlock. The ADC's result will not be
 445:Generated_Source\PSoC5/ADC_1.c **** *  updated until the set byte is read either by the ADC or DMA. 
 446:Generated_Source\PSoC5/ADC_1.c **** *  By default the LSB is the coherency byte for right alignment data format. 
 447:Generated_Source\PSoC5/ADC_1.c **** *  The middle or high byte is set automatically depend on left alignment 
 448:Generated_Source\PSoC5/ADC_1.c **** *  configuration for DMA data transfer.
 449:Generated_Source\PSoC5/ADC_1.c **** *  If DMA or if a custom API requires different byte to be read the last,
 450:Generated_Source\PSoC5/ADC_1.c **** *  this API should be used to set the last byte of the ADC result that is read. 
 451:Generated_Source\PSoC5/ADC_1.c **** *  If a multibyte read is performed either by DMA or the ARM processor, the
 452:Generated_Source\PSoC5/ADC_1.c **** *  coherency can be set to any byte in the last word read.
 453:Generated_Source\PSoC5/ADC_1.c **** *
 454:Generated_Source\PSoC5/ADC_1.c **** * Parameters:
 455:Generated_Source\PSoC5/ADC_1.c **** *  coherency:  Two bit value to set the coherency bit.
 456:Generated_Source\PSoC5/ADC_1.c **** *           00-Coherency checking off
 457:Generated_Source\PSoC5/ADC_1.c **** *           01-low byte is key byte
 458:Generated_Source\PSoC5/ADC_1.c **** *           02-middle byte is the key byte
 459:Generated_Source\PSoC5/ADC_1.c **** *           03-high byte is the key byte
 460:Generated_Source\PSoC5/ADC_1.c **** *
 461:Generated_Source\PSoC5/ADC_1.c **** * Return:
 462:Generated_Source\PSoC5/ADC_1.c **** *  None
 463:Generated_Source\PSoC5/ADC_1.c **** *
 464:Generated_Source\PSoC5/ADC_1.c **** *******************************************************************************/
 465:Generated_Source\PSoC5/ADC_1.c **** void ADC_1_SetCoherency(uint8 coherency) 
 466:Generated_Source\PSoC5/ADC_1.c **** {
 467:Generated_Source\PSoC5/ADC_1.c ****     uint8 tmpReg;
 468:Generated_Source\PSoC5/ADC_1.c **** 
 469:Generated_Source\PSoC5/ADC_1.c ****     tmpReg = ADC_1_DEC_COHER_REG & (uint8)~ADC_1_DEC_SAMP_KEY_MASK;
 470:Generated_Source\PSoC5/ADC_1.c ****     tmpReg |= coherency & ADC_1_DEC_SAMP_KEY_MASK;
 471:Generated_Source\PSoC5/ADC_1.c ****     ADC_1_DEC_COHER_REG = tmpReg;
 472:Generated_Source\PSoC5/ADC_1.c **** }
 473:Generated_Source\PSoC5/ADC_1.c **** 
 474:Generated_Source\PSoC5/ADC_1.c **** 
 475:Generated_Source\PSoC5/ADC_1.c **** /*******************************************************************************
 476:Generated_Source\PSoC5/ADC_1.c **** * Function Name: ADC_1_SetGCOR
 477:Generated_Source\PSoC5/ADC_1.c **** ********************************************************************************
 478:Generated_Source\PSoC5/ADC_1.c **** *
 479:Generated_Source\PSoC5/ADC_1.c **** * Summary:
 480:Generated_Source\PSoC5/ADC_1.c **** *  Calculates a new GCOR value and writes it into the GCOR register. 
 481:Generated_Source\PSoC5/ADC_1.c **** *  The GCOR value is a 16-bit value that represents a gain of 0 to 2. 
 482:Generated_Source\PSoC5/ADC_1.c **** *  The ADC result is multiplied by this value before it is placed in the ADC 
 483:Generated_Source\PSoC5/ADC_1.c **** *  output registers. The numerical format for the GCOR value is:
 484:Generated_Source\PSoC5/ADC_1.c **** *  0x0000 -> 0.000
 485:Generated_Source\PSoC5/ADC_1.c **** *  0x8000 -> 1.000
 486:Generated_Source\PSoC5/ADC_1.c **** *  0xFFFF -> 1.99997
 487:Generated_Source\PSoC5/ADC_1.c **** *  When executing the function, the old GCOR value is multiplied by
ARM GAS  C:\Users\karth\AppData\Local\Temp\ccX3KBuT.s 			page 10


 488:Generated_Source\PSoC5/ADC_1.c **** *  gainAdjust and reloaded into the GCOR register.
 489:Generated_Source\PSoC5/ADC_1.c **** *
 490:Generated_Source\PSoC5/ADC_1.c **** * Parameters:
 491:Generated_Source\PSoC5/ADC_1.c **** *  gainAdjust:  floating point value to set GCOR registers.
 492:Generated_Source\PSoC5/ADC_1.c **** *
 493:Generated_Source\PSoC5/ADC_1.c **** * Return:
 494:Generated_Source\PSoC5/ADC_1.c **** *  uint8: 0 - if GCOR value is within the expected range.
 495:Generated_Source\PSoC5/ADC_1.c **** *         1 - the correction value is outside GCOR value range of
 496:Generated_Source\PSoC5/ADC_1.c **** *             0.00 to 1.9999.
 497:Generated_Source\PSoC5/ADC_1.c **** *
 498:Generated_Source\PSoC5/ADC_1.c **** * Side Effects:  The GVAL register is set to the amount of valid bits in the
 499:Generated_Source\PSoC5/ADC_1.c **** *                GCOR  register minus one. If GVAL is 15 (0x0F), all 16 bits
 500:Generated_Source\PSoC5/ADC_1.c **** *                of the GCOR registers will be valid. If for example GVAL is
 501:Generated_Source\PSoC5/ADC_1.c **** *                11 (0x0B) only 12 bits will be valid. The least 4 bits will
 502:Generated_Source\PSoC5/ADC_1.c **** *                be lost when the GCOR value is shifted 4 places to the right.
 503:Generated_Source\PSoC5/ADC_1.c **** *
 504:Generated_Source\PSoC5/ADC_1.c **** ******************************************************************************/
 505:Generated_Source\PSoC5/ADC_1.c **** uint8 ADC_1_SetGCOR(float32 gainAdjust) 
 506:Generated_Source\PSoC5/ADC_1.c **** {
 507:Generated_Source\PSoC5/ADC_1.c ****     uint16 tmpReg;
 508:Generated_Source\PSoC5/ADC_1.c ****     uint8 status;
 509:Generated_Source\PSoC5/ADC_1.c ****     float32 tmpValue;
 510:Generated_Source\PSoC5/ADC_1.c **** 
 511:Generated_Source\PSoC5/ADC_1.c ****     tmpReg = ADC_1_gcor[ADC_1_Config - 1u].gcor;
 512:Generated_Source\PSoC5/ADC_1.c ****     tmpValue = ((float32)tmpReg / (float32)ADC_1_IDEAL_GAIN_CONST);
 513:Generated_Source\PSoC5/ADC_1.c ****     tmpValue = tmpValue * gainAdjust;
 514:Generated_Source\PSoC5/ADC_1.c **** 
 515:Generated_Source\PSoC5/ADC_1.c ****     if (tmpValue > 1.9999)
 516:Generated_Source\PSoC5/ADC_1.c ****     {
 517:Generated_Source\PSoC5/ADC_1.c ****         status = 1u;
 518:Generated_Source\PSoC5/ADC_1.c ****     }
 519:Generated_Source\PSoC5/ADC_1.c ****     else
 520:Generated_Source\PSoC5/ADC_1.c ****     {
 521:Generated_Source\PSoC5/ADC_1.c ****         tmpValue *= (float32)ADC_1_IDEAL_GAIN_CONST;
 522:Generated_Source\PSoC5/ADC_1.c **** 		tmpReg = (uint16)tmpValue;
 523:Generated_Source\PSoC5/ADC_1.c ****         CY_SET_REG16(ADC_1_DEC_GCOR_16B_PTR, tmpReg);
 524:Generated_Source\PSoC5/ADC_1.c ****         /* Update gain array to be used by SelectConfiguration() API */
 525:Generated_Source\PSoC5/ADC_1.c ****        ADC_1_gcor[ADC_1_Config - 1u].gcor = tmpReg;
 526:Generated_Source\PSoC5/ADC_1.c **** 
 527:Generated_Source\PSoC5/ADC_1.c ****         status = 0u;
 528:Generated_Source\PSoC5/ADC_1.c **** 
 529:Generated_Source\PSoC5/ADC_1.c ****     }
 530:Generated_Source\PSoC5/ADC_1.c ****     return(status);
 531:Generated_Source\PSoC5/ADC_1.c **** }
 532:Generated_Source\PSoC5/ADC_1.c **** 
 533:Generated_Source\PSoC5/ADC_1.c **** 
 534:Generated_Source\PSoC5/ADC_1.c **** /******************************************************************************
 535:Generated_Source\PSoC5/ADC_1.c **** * Function Name: ADC_1_ReadGCOR
 536:Generated_Source\PSoC5/ADC_1.c **** *******************************************************************************
 537:Generated_Source\PSoC5/ADC_1.c **** *
 538:Generated_Source\PSoC5/ADC_1.c **** * Summary:
 539:Generated_Source\PSoC5/ADC_1.c **** *  This API returns the current GCOR register value, normalized based on the
 540:Generated_Source\PSoC5/ADC_1.c **** *  GVAL register settings.
 541:Generated_Source\PSoC5/ADC_1.c **** *  For example, if the GCOR value is 0x0812 and the GVAL register is set to 
 542:Generated_Source\PSoC5/ADC_1.c **** *  11 (0x0B) then the returned value will be shifted by for bits to the left.
 543:Generated_Source\PSoC5/ADC_1.c **** *  (Actual GCOR value = 0x0812, returned value = 0x8120)
 544:Generated_Source\PSoC5/ADC_1.c **** *
ARM GAS  C:\Users\karth\AppData\Local\Temp\ccX3KBuT.s 			page 11


 545:Generated_Source\PSoC5/ADC_1.c **** * Parameters:
 546:Generated_Source\PSoC5/ADC_1.c **** *  None
 547:Generated_Source\PSoC5/ADC_1.c **** *
 548:Generated_Source\PSoC5/ADC_1.c **** * Return:
 549:Generated_Source\PSoC5/ADC_1.c **** *  uint16:  Normalized GCOR value.
 550:Generated_Source\PSoC5/ADC_1.c **** *
 551:Generated_Source\PSoC5/ADC_1.c **** *******************************************************************************/
 552:Generated_Source\PSoC5/ADC_1.c **** uint16 ADC_1_ReadGCOR(void) 
 553:Generated_Source\PSoC5/ADC_1.c **** {
 554:Generated_Source\PSoC5/ADC_1.c ****     uint8 gValue;
 555:Generated_Source\PSoC5/ADC_1.c ****     uint16 gcorValue;
 556:Generated_Source\PSoC5/ADC_1.c **** 
 557:Generated_Source\PSoC5/ADC_1.c ****     gValue = ADC_1_DEC_GVAL_REG;
 558:Generated_Source\PSoC5/ADC_1.c ****     gcorValue = CY_GET_REG16(ADC_1_DEC_GCOR_16B_PTR);
 559:Generated_Source\PSoC5/ADC_1.c **** 
 560:Generated_Source\PSoC5/ADC_1.c ****     if (gValue < ADC_1_MAX_GVAL)
 561:Generated_Source\PSoC5/ADC_1.c ****     {
 562:Generated_Source\PSoC5/ADC_1.c ****         gcorValue <<= ADC_1_MAX_GVAL - gValue;
 563:Generated_Source\PSoC5/ADC_1.c ****     }
 564:Generated_Source\PSoC5/ADC_1.c **** 
 565:Generated_Source\PSoC5/ADC_1.c ****     return gcorValue;
 566:Generated_Source\PSoC5/ADC_1.c **** }
 567:Generated_Source\PSoC5/ADC_1.c **** 
 568:Generated_Source\PSoC5/ADC_1.c **** 
 569:Generated_Source\PSoC5/ADC_1.c **** /*******************************************************************************
 570:Generated_Source\PSoC5/ADC_1.c **** * Function Name: ADC_1_StartConvert
 571:Generated_Source\PSoC5/ADC_1.c **** ********************************************************************************
 572:Generated_Source\PSoC5/ADC_1.c **** *
 573:Generated_Source\PSoC5/ADC_1.c **** * Summary:
 574:Generated_Source\PSoC5/ADC_1.c **** *  Forces the ADC to initiate a conversion. If in the "Single Sample"
 575:Generated_Source\PSoC5/ADC_1.c **** *  mode, one conversion will be performed then the ADC will halt. If in
 576:Generated_Source\PSoC5/ADC_1.c **** *  one of the other three conversion modes, the ADC will run
 577:Generated_Source\PSoC5/ADC_1.c **** *  continuously until the ADC_Stop() or ADC_StopConvert() is called.
 578:Generated_Source\PSoC5/ADC_1.c **** *
 579:Generated_Source\PSoC5/ADC_1.c **** * Parameters:
 580:Generated_Source\PSoC5/ADC_1.c **** *  None
 581:Generated_Source\PSoC5/ADC_1.c **** *
 582:Generated_Source\PSoC5/ADC_1.c **** * Return:
 583:Generated_Source\PSoC5/ADC_1.c **** *  None
 584:Generated_Source\PSoC5/ADC_1.c **** *
 585:Generated_Source\PSoC5/ADC_1.c **** *******************************************************************************/
 586:Generated_Source\PSoC5/ADC_1.c **** void ADC_1_StartConvert(void) 
 587:Generated_Source\PSoC5/ADC_1.c **** {
 588:Generated_Source\PSoC5/ADC_1.c ****     /* Start the conversion */
 589:Generated_Source\PSoC5/ADC_1.c ****     ADC_1_DEC_CR_REG |= ADC_1_DEC_START_CONV;
 590:Generated_Source\PSoC5/ADC_1.c **** }
 591:Generated_Source\PSoC5/ADC_1.c **** 
 592:Generated_Source\PSoC5/ADC_1.c **** 
 593:Generated_Source\PSoC5/ADC_1.c **** /*******************************************************************************
 594:Generated_Source\PSoC5/ADC_1.c **** * Function Name: ADC_1_StopConvert
 595:Generated_Source\PSoC5/ADC_1.c **** ********************************************************************************
 596:Generated_Source\PSoC5/ADC_1.c **** *
 597:Generated_Source\PSoC5/ADC_1.c **** * Summary:
 598:Generated_Source\PSoC5/ADC_1.c **** *  Forces the ADC to stop all conversions. If the ADC is in the middle of a
 599:Generated_Source\PSoC5/ADC_1.c **** *  conversion, the ADC will be reset and not provide a result for that partial
 600:Generated_Source\PSoC5/ADC_1.c **** *  conversion.
 601:Generated_Source\PSoC5/ADC_1.c **** *
ARM GAS  C:\Users\karth\AppData\Local\Temp\ccX3KBuT.s 			page 12


 602:Generated_Source\PSoC5/ADC_1.c **** * Parameters:
 603:Generated_Source\PSoC5/ADC_1.c **** *  None
 604:Generated_Source\PSoC5/ADC_1.c **** *
 605:Generated_Source\PSoC5/ADC_1.c **** * Return:
 606:Generated_Source\PSoC5/ADC_1.c **** *  None
 607:Generated_Source\PSoC5/ADC_1.c **** *
 608:Generated_Source\PSoC5/ADC_1.c **** *******************************************************************************/
 609:Generated_Source\PSoC5/ADC_1.c **** void ADC_1_StopConvert(void) 
 610:Generated_Source\PSoC5/ADC_1.c **** {
 611:Generated_Source\PSoC5/ADC_1.c ****     /* Stop all conversions */
 612:Generated_Source\PSoC5/ADC_1.c ****     ADC_1_DEC_CR_REG &= (uint8)~ADC_1_DEC_START_CONV;
 613:Generated_Source\PSoC5/ADC_1.c **** }
 614:Generated_Source\PSoC5/ADC_1.c **** 
 615:Generated_Source\PSoC5/ADC_1.c **** 
 616:Generated_Source\PSoC5/ADC_1.c **** /*******************************************************************************
 617:Generated_Source\PSoC5/ADC_1.c **** * Function Name: ADC_1_IsEndConversion
 618:Generated_Source\PSoC5/ADC_1.c **** ********************************************************************************
 619:Generated_Source\PSoC5/ADC_1.c **** *
 620:Generated_Source\PSoC5/ADC_1.c **** * Summary:
 621:Generated_Source\PSoC5/ADC_1.c **** *  Checks the status that the most recently started conversion has completed.
 622:Generated_Source\PSoC5/ADC_1.c **** *  The status is cleared by any of ADC_GetResult8(), ADC_GetResult16() or 
 623:Generated_Source\PSoC5/ADC_1.c **** *  ADC_GetResult32() API.
 624:Generated_Source\PSoC5/ADC_1.c **** *  This function provides the programmer with two options. In one mode this 
 625:Generated_Source\PSoC5/ADC_1.c **** *  function immediately returns with the conversion status. In the other mode,
 626:Generated_Source\PSoC5/ADC_1.c **** *  the function does not return (blocking) until the conversion has completed.
 627:Generated_Source\PSoC5/ADC_1.c **** *
 628:Generated_Source\PSoC5/ADC_1.c **** * Parameters:
 629:Generated_Source\PSoC5/ADC_1.c **** *  retMode: Check conversion return mode. See the following table for options.
 630:Generated_Source\PSoC5/ADC_1.c **** *   ADC_1_RETURN_STATUS -   Immediately returns conversion result
 631:Generated_Source\PSoC5/ADC_1.c **** *                                      status.
 632:Generated_Source\PSoC5/ADC_1.c **** *   ADC_1_WAIT_FOR_RESULT - Does not return until ADC conversion
 633:Generated_Source\PSoC5/ADC_1.c **** *                                      is complete.
 634:Generated_Source\PSoC5/ADC_1.c **** *
 635:Generated_Source\PSoC5/ADC_1.c **** * Return:
 636:Generated_Source\PSoC5/ADC_1.c **** *  If a nonzero value is returned, the last conversion has completed.
 637:Generated_Source\PSoC5/ADC_1.c **** *  If the returned value is zero, the ADC is still calculating the last result.
 638:Generated_Source\PSoC5/ADC_1.c **** *
 639:Generated_Source\PSoC5/ADC_1.c **** * Global variables:
 640:Generated_Source\PSoC5/ADC_1.c **** *  ADC_1_convDone:  Used to check whether conversion is complete
 641:Generated_Source\PSoC5/ADC_1.c **** *  or not for single sample mode with resolution is above 16
 642:Generated_Source\PSoC5/ADC_1.c **** *
 643:Generated_Source\PSoC5/ADC_1.c **** *******************************************************************************/
 644:Generated_Source\PSoC5/ADC_1.c **** uint8 ADC_1_IsEndConversion(uint8 retMode) 
 645:Generated_Source\PSoC5/ADC_1.c **** {
 646:Generated_Source\PSoC5/ADC_1.c ****     uint8 status;
 647:Generated_Source\PSoC5/ADC_1.c **** 
 648:Generated_Source\PSoC5/ADC_1.c ****     do
 649:Generated_Source\PSoC5/ADC_1.c ****     {
 650:Generated_Source\PSoC5/ADC_1.c ****         /* Check for stop convert if conversion mode is Single Sample with
 651:Generated_Source\PSoC5/ADC_1.c ****         *   resolution above 16 bit
 652:Generated_Source\PSoC5/ADC_1.c ****         */
 653:Generated_Source\PSoC5/ADC_1.c ****         if(ADC_1_stopConversion != 0u)
 654:Generated_Source\PSoC5/ADC_1.c ****         {
 655:Generated_Source\PSoC5/ADC_1.c ****             status = ADC_1_convDone;
 656:Generated_Source\PSoC5/ADC_1.c ****         }
 657:Generated_Source\PSoC5/ADC_1.c ****         else
 658:Generated_Source\PSoC5/ADC_1.c ****         {
ARM GAS  C:\Users\karth\AppData\Local\Temp\ccX3KBuT.s 			page 13


 659:Generated_Source\PSoC5/ADC_1.c ****             status = ADC_1_DEC_SR_REG & ADC_1_DEC_CONV_DONE;
 660:Generated_Source\PSoC5/ADC_1.c ****         }
 661:Generated_Source\PSoC5/ADC_1.c ****     }while((status != ADC_1_DEC_CONV_DONE) && (retMode == ADC_1_WAIT_FOR_RESULT));
 662:Generated_Source\PSoC5/ADC_1.c **** 
 663:Generated_Source\PSoC5/ADC_1.c ****     return(status);
 664:Generated_Source\PSoC5/ADC_1.c **** }
 665:Generated_Source\PSoC5/ADC_1.c **** 
 666:Generated_Source\PSoC5/ADC_1.c **** 
 667:Generated_Source\PSoC5/ADC_1.c **** /*******************************************************************************
 668:Generated_Source\PSoC5/ADC_1.c **** * Function Name: ADC_1_GetResult8
 669:Generated_Source\PSoC5/ADC_1.c **** ********************************************************************************
 670:Generated_Source\PSoC5/ADC_1.c **** *
 671:Generated_Source\PSoC5/ADC_1.c **** * Summary:
 672:Generated_Source\PSoC5/ADC_1.c **** *  This function returns the result of an 8-bit conversion. If the
 673:Generated_Source\PSoC5/ADC_1.c **** *  resolution is set greater than 8-bits, the LSB of the result will be
 674:Generated_Source\PSoC5/ADC_1.c **** *  returned. When the ADC is configured for 8-bit single ended mode,
 675:Generated_Source\PSoC5/ADC_1.c **** *  the ADC_GetResult16() function should be used instead. This
 676:Generated_Source\PSoC5/ADC_1.c **** *  function returns only signed 8-bit values. The maximum positive
 677:Generated_Source\PSoC5/ADC_1.c **** *  signed 8-bit value is 127, but in singled ended 8-bit mode, the
 678:Generated_Source\PSoC5/ADC_1.c **** *  maximum positive value is 255.
 679:Generated_Source\PSoC5/ADC_1.c **** *
 680:Generated_Source\PSoC5/ADC_1.c **** * Parameters:
 681:Generated_Source\PSoC5/ADC_1.c **** *  None
 682:Generated_Source\PSoC5/ADC_1.c **** *
 683:Generated_Source\PSoC5/ADC_1.c **** * Return:
 684:Generated_Source\PSoC5/ADC_1.c **** *  int8: The LSB of the last ADC conversion.
 685:Generated_Source\PSoC5/ADC_1.c **** *
 686:Generated_Source\PSoC5/ADC_1.c **** * Global variables:
 687:Generated_Source\PSoC5/ADC_1.c **** *  ADC_1_convDone:  Cleared in single sample mode with resolution
 688:Generated_Source\PSoC5/ADC_1.c **** *                              above 16 bits
 689:Generated_Source\PSoC5/ADC_1.c **** *
 690:Generated_Source\PSoC5/ADC_1.c **** *******************************************************************************/
 691:Generated_Source\PSoC5/ADC_1.c **** int8 ADC_1_GetResult8( void ) 
 692:Generated_Source\PSoC5/ADC_1.c **** {
 693:Generated_Source\PSoC5/ADC_1.c ****     int8 result;
 694:Generated_Source\PSoC5/ADC_1.c ****     uint8 coherency;
 695:Generated_Source\PSoC5/ADC_1.c **** 
 696:Generated_Source\PSoC5/ADC_1.c ****     /* Read active coherency configuration */
 697:Generated_Source\PSoC5/ADC_1.c ****     coherency = ADC_1_DEC_COHER_REG & ADC_1_DEC_SAMP_KEY_MASK;
 698:Generated_Source\PSoC5/ADC_1.c **** 
 699:Generated_Source\PSoC5/ADC_1.c ****     result = (int8)ADC_1_DEC_SAMP_REG;
 700:Generated_Source\PSoC5/ADC_1.c **** 
 701:Generated_Source\PSoC5/ADC_1.c ****     if(coherency == ADC_1_DEC_SAMP_KEY_MID)
 702:Generated_Source\PSoC5/ADC_1.c ****     {   /* Dummy read of the middle byte to unlock the coherency */
 703:Generated_Source\PSoC5/ADC_1.c ****         (void)ADC_1_DEC_SAMPM_REG;
 704:Generated_Source\PSoC5/ADC_1.c ****     }
 705:Generated_Source\PSoC5/ADC_1.c ****     else  if(coherency == ADC_1_DEC_SAMP_KEY_HIGH)
 706:Generated_Source\PSoC5/ADC_1.c ****     {   /* Dummy read of the MSB byte to unlock the coherency */
 707:Generated_Source\PSoC5/ADC_1.c ****         (void)ADC_1_DEC_SAMPH_REG;
 708:Generated_Source\PSoC5/ADC_1.c ****     }
 709:Generated_Source\PSoC5/ADC_1.c ****     else /*No action required for other coherency */
 710:Generated_Source\PSoC5/ADC_1.c ****     {
 711:Generated_Source\PSoC5/ADC_1.c ****     }
 712:Generated_Source\PSoC5/ADC_1.c ****     /* Clear conversion complete status in Single Sample mode with resolution above 16 bit */
 713:Generated_Source\PSoC5/ADC_1.c ****     if(ADC_1_stopConversion != 0u)
 714:Generated_Source\PSoC5/ADC_1.c ****     {
 715:Generated_Source\PSoC5/ADC_1.c ****         ADC_1_convDone = 0u;
ARM GAS  C:\Users\karth\AppData\Local\Temp\ccX3KBuT.s 			page 14


 716:Generated_Source\PSoC5/ADC_1.c ****     }
 717:Generated_Source\PSoC5/ADC_1.c ****     return (result);
 718:Generated_Source\PSoC5/ADC_1.c **** }
 719:Generated_Source\PSoC5/ADC_1.c **** 
 720:Generated_Source\PSoC5/ADC_1.c **** 
 721:Generated_Source\PSoC5/ADC_1.c **** /*******************************************************************************
 722:Generated_Source\PSoC5/ADC_1.c **** * Function Name: ADC_1_GetResult16
 723:Generated_Source\PSoC5/ADC_1.c **** ********************************************************************************
 724:Generated_Source\PSoC5/ADC_1.c **** *
 725:Generated_Source\PSoC5/ADC_1.c **** * Summary:
 726:Generated_Source\PSoC5/ADC_1.c **** *  Returns a 16-bit result for a conversion with a result that has a
 727:Generated_Source\PSoC5/ADC_1.c **** *  resolution of 8 to 16 bits. If the resolution is set greater than 16-bits,
 728:Generated_Source\PSoC5/ADC_1.c **** *  it will return the 16 least significant bits of the result. When the ADC
 729:Generated_Source\PSoC5/ADC_1.c **** *  is configured for 16-bit single ended mode, the ADC_GetResult32()
 730:Generated_Source\PSoC5/ADC_1.c **** *  function should be used instead. This function returns only signed
 731:Generated_Source\PSoC5/ADC_1.c **** *  16-bit result, which allows a maximum positive value of 32767, not 65535.
 732:Generated_Source\PSoC5/ADC_1.c **** *  This function supports different coherency settings.
 733:Generated_Source\PSoC5/ADC_1.c **** *
 734:Generated_Source\PSoC5/ADC_1.c **** * Parameters:
 735:Generated_Source\PSoC5/ADC_1.c **** *   void
 736:Generated_Source\PSoC5/ADC_1.c **** *
 737:Generated_Source\PSoC5/ADC_1.c **** * Return:
 738:Generated_Source\PSoC5/ADC_1.c **** *  int16:  ADC result.
 739:Generated_Source\PSoC5/ADC_1.c **** *
 740:Generated_Source\PSoC5/ADC_1.c **** * Global variables:
 741:Generated_Source\PSoC5/ADC_1.c **** *  ADC_1_convDone:  Cleared in single sample mode with resolution
 742:Generated_Source\PSoC5/ADC_1.c **** *                              above 16 bits
 743:Generated_Source\PSoC5/ADC_1.c **** *
 744:Generated_Source\PSoC5/ADC_1.c **** *******************************************************************************/
 745:Generated_Source\PSoC5/ADC_1.c **** int16 ADC_1_GetResult16(void) 
 746:Generated_Source\PSoC5/ADC_1.c **** {
 747:Generated_Source\PSoC5/ADC_1.c ****     uint16 result;
 748:Generated_Source\PSoC5/ADC_1.c ****     uint8 coherency;
 749:Generated_Source\PSoC5/ADC_1.c **** 
 750:Generated_Source\PSoC5/ADC_1.c ****     /* Read active coherency configuration */
 751:Generated_Source\PSoC5/ADC_1.c ****     coherency = ADC_1_DEC_COHER_REG & ADC_1_DEC_SAMP_KEY_MASK;
 752:Generated_Source\PSoC5/ADC_1.c **** 
 753:Generated_Source\PSoC5/ADC_1.c ****     if(coherency <= ADC_1_DEC_SAMP_KEY_LOW)
 754:Generated_Source\PSoC5/ADC_1.c ****     {   /*  Use default method to read result registers i.e. LSB byte read at the end*/
 755:Generated_Source\PSoC5/ADC_1.c ****         #if (CY_PSOC3)
 756:Generated_Source\PSoC5/ADC_1.c ****             result = ADC_1_DEC_SAMPM_REG;
 757:Generated_Source\PSoC5/ADC_1.c ****             result = (result << 8u) | ADC_1_DEC_SAMP_REG;
 758:Generated_Source\PSoC5/ADC_1.c ****         #else
 759:Generated_Source\PSoC5/ADC_1.c ****             result = (CY_GET_REG16(ADC_1_DEC_SAMP_16B_PTR));
 760:Generated_Source\PSoC5/ADC_1.c ****         #endif /* CY_PSOC3 */
 761:Generated_Source\PSoC5/ADC_1.c ****     }
 762:Generated_Source\PSoC5/ADC_1.c ****     else /* MID or HIGH */
 763:Generated_Source\PSoC5/ADC_1.c ****     {   /* Read middle byte at the end */
 764:Generated_Source\PSoC5/ADC_1.c ****         #if (CY_PSOC3)
 765:Generated_Source\PSoC5/ADC_1.c ****             result = (CY_GET_REG16(ADC_1_DEC_SAMP_16B_PTR));
 766:Generated_Source\PSoC5/ADC_1.c ****         #else
 767:Generated_Source\PSoC5/ADC_1.c ****             result = ADC_1_DEC_SAMP_REG;
 768:Generated_Source\PSoC5/ADC_1.c ****             result |=  (uint16)((uint16)ADC_1_DEC_SAMPM_REG << 8u);
 769:Generated_Source\PSoC5/ADC_1.c ****         #endif /* CY_PSOC3 */
 770:Generated_Source\PSoC5/ADC_1.c ****         if(coherency == ADC_1_DEC_SAMP_KEY_HIGH)
 771:Generated_Source\PSoC5/ADC_1.c ****         {   /* Dummy read of the MSB byte to unlock the coherency */
 772:Generated_Source\PSoC5/ADC_1.c ****             (void)ADC_1_DEC_SAMPH_REG;
ARM GAS  C:\Users\karth\AppData\Local\Temp\ccX3KBuT.s 			page 15


 773:Generated_Source\PSoC5/ADC_1.c ****         }
 774:Generated_Source\PSoC5/ADC_1.c ****     }
 775:Generated_Source\PSoC5/ADC_1.c ****     /* Clear conversion complete status in Single Sample mode with resolution above 16 bit */
 776:Generated_Source\PSoC5/ADC_1.c ****     if(ADC_1_stopConversion != 0u)
 777:Generated_Source\PSoC5/ADC_1.c ****     {
 778:Generated_Source\PSoC5/ADC_1.c ****         ADC_1_convDone = 0u;
 779:Generated_Source\PSoC5/ADC_1.c ****     }
 780:Generated_Source\PSoC5/ADC_1.c **** 
 781:Generated_Source\PSoC5/ADC_1.c ****     return ((int16)result);
 782:Generated_Source\PSoC5/ADC_1.c **** }
 783:Generated_Source\PSoC5/ADC_1.c **** 
 784:Generated_Source\PSoC5/ADC_1.c **** 
 785:Generated_Source\PSoC5/ADC_1.c **** /*******************************************************************************
 786:Generated_Source\PSoC5/ADC_1.c **** * Function Name: ADC_1_GetResult32
 787:Generated_Source\PSoC5/ADC_1.c **** ********************************************************************************
 788:Generated_Source\PSoC5/ADC_1.c **** *
 789:Generated_Source\PSoC5/ADC_1.c **** * Summary:
 790:Generated_Source\PSoC5/ADC_1.c **** *  Returns a 32-bit result for a conversion with a result that has a
 791:Generated_Source\PSoC5/ADC_1.c **** *  resolution of 8 to 20 bits.
 792:Generated_Source\PSoC5/ADC_1.c **** *  This function supports different coherency settings.
 793:Generated_Source\PSoC5/ADC_1.c **** *
 794:Generated_Source\PSoC5/ADC_1.c **** * Parameters:
 795:Generated_Source\PSoC5/ADC_1.c **** *  None
 796:Generated_Source\PSoC5/ADC_1.c **** *
 797:Generated_Source\PSoC5/ADC_1.c **** * Return:
 798:Generated_Source\PSoC5/ADC_1.c **** *  int32: Result of the last ADC conversion.
 799:Generated_Source\PSoC5/ADC_1.c **** *
 800:Generated_Source\PSoC5/ADC_1.c **** * Global variables:
 801:Generated_Source\PSoC5/ADC_1.c **** *  ADC_1_convDone:  Cleared in single sample mode with resolution
 802:Generated_Source\PSoC5/ADC_1.c **** *                              above 16 bits
 803:Generated_Source\PSoC5/ADC_1.c **** *
 804:Generated_Source\PSoC5/ADC_1.c **** *******************************************************************************/
 805:Generated_Source\PSoC5/ADC_1.c **** int32 ADC_1_GetResult32(void) 
 806:Generated_Source\PSoC5/ADC_1.c **** {
 807:Generated_Source\PSoC5/ADC_1.c ****     uint32 result;
 808:Generated_Source\PSoC5/ADC_1.c ****     uint8 coherency;
 809:Generated_Source\PSoC5/ADC_1.c ****     #if (CY_PSOC3)
 810:Generated_Source\PSoC5/ADC_1.c **** 	    uint16 tmp;
 811:Generated_Source\PSoC5/ADC_1.c ****     #endif /* CY_PSOC3 */
 812:Generated_Source\PSoC5/ADC_1.c **** 
 813:Generated_Source\PSoC5/ADC_1.c ****     /* Read active coherency configuration */
 814:Generated_Source\PSoC5/ADC_1.c ****     coherency = ADC_1_DEC_COHER_REG & ADC_1_DEC_SAMP_KEY_MASK;
 815:Generated_Source\PSoC5/ADC_1.c **** 
 816:Generated_Source\PSoC5/ADC_1.c ****     if(coherency <= ADC_1_DEC_SAMP_KEY_LOW)
 817:Generated_Source\PSoC5/ADC_1.c ****     {   /*  Use default method to read result registers i.e. LSB byte read at the end*/
 818:Generated_Source\PSoC5/ADC_1.c ****         #if (CY_PSOC3)
 819:Generated_Source\PSoC5/ADC_1.c ****             result = ADC_1_DEC_SAMPH_REG;
 820:Generated_Source\PSoC5/ADC_1.c ****             if((result & 0x80u) != 0u)
 821:Generated_Source\PSoC5/ADC_1.c ****             {   /* Sign extend */
 822:Generated_Source\PSoC5/ADC_1.c ****                 result |= 0xFF00u;
 823:Generated_Source\PSoC5/ADC_1.c ****             }
 824:Generated_Source\PSoC5/ADC_1.c ****             result = (result << 8u) | ADC_1_DEC_SAMPM_REG;
 825:Generated_Source\PSoC5/ADC_1.c ****             result = (result << 8u) | ADC_1_DEC_SAMP_REG;
 826:Generated_Source\PSoC5/ADC_1.c ****         #else
 827:Generated_Source\PSoC5/ADC_1.c ****             result = CY_GET_REG16(ADC_1_DEC_SAMPH_16B_PTR);
 828:Generated_Source\PSoC5/ADC_1.c ****             result = (result << 16u) | (CY_GET_REG16(ADC_1_DEC_SAMP_16B_PTR));
 829:Generated_Source\PSoC5/ADC_1.c ****         #endif /* CY_PSOC3 */
ARM GAS  C:\Users\karth\AppData\Local\Temp\ccX3KBuT.s 			page 16


 830:Generated_Source\PSoC5/ADC_1.c ****     }
 831:Generated_Source\PSoC5/ADC_1.c ****     else if(coherency == ADC_1_DEC_SAMP_KEY_MID)
 832:Generated_Source\PSoC5/ADC_1.c ****     {   /* Read middle byte at the end */
 833:Generated_Source\PSoC5/ADC_1.c ****         #if (CY_PSOC3)
 834:Generated_Source\PSoC5/ADC_1.c ****             result = ADC_1_DEC_SAMPH_REG;
 835:Generated_Source\PSoC5/ADC_1.c ****             if((result & 0x80u) != 0u)
 836:Generated_Source\PSoC5/ADC_1.c ****             {   /* Sign extend */
 837:Generated_Source\PSoC5/ADC_1.c ****                 result |= 0xFF00u;
 838:Generated_Source\PSoC5/ADC_1.c ****             }
 839:Generated_Source\PSoC5/ADC_1.c ****             result = (result << 16u) | (CY_GET_REG16(ADC_1_DEC_SAMP_16B_PTR));
 840:Generated_Source\PSoC5/ADC_1.c ****         #else
 841:Generated_Source\PSoC5/ADC_1.c ****             result = CY_GET_REG16(ADC_1_DEC_SAMPH_16B_PTR);
 842:Generated_Source\PSoC5/ADC_1.c ****             result = (result << 16u) | ADC_1_DEC_SAMP_REG;
 843:Generated_Source\PSoC5/ADC_1.c ****             result |=  (uint32)((uint32)ADC_1_DEC_SAMPM_REG << 8u);
 844:Generated_Source\PSoC5/ADC_1.c ****         #endif /* CY_PSOC3 */
 845:Generated_Source\PSoC5/ADC_1.c ****     }
 846:Generated_Source\PSoC5/ADC_1.c ****     else /*ADC_1_DEC_SAMP_KEY_HIGH */
 847:Generated_Source\PSoC5/ADC_1.c ****     {
 848:Generated_Source\PSoC5/ADC_1.c ****         /* Read MSB byte at the end */
 849:Generated_Source\PSoC5/ADC_1.c ****         #if (CY_PSOC3)
 850:Generated_Source\PSoC5/ADC_1.c ****             result = CY_GET_REG16(ADC_1_DEC_SAMP_16B_PTR);
 851:Generated_Source\PSoC5/ADC_1.c **** 			tmp = ADC_1_DEC_SAMPH_REG;
 852:Generated_Source\PSoC5/ADC_1.c ****             if((tmp & 0x80u) != 0u)
 853:Generated_Source\PSoC5/ADC_1.c ****             {   /* Sign extend */
 854:Generated_Source\PSoC5/ADC_1.c ****                 tmp |= 0xFF00u;
 855:Generated_Source\PSoC5/ADC_1.c ****             }
 856:Generated_Source\PSoC5/ADC_1.c ****             result |= (uint32)tmp << 16u;
 857:Generated_Source\PSoC5/ADC_1.c ****         #else
 858:Generated_Source\PSoC5/ADC_1.c ****             result = CY_GET_REG16(ADC_1_DEC_SAMP_16B_PTR);
 859:Generated_Source\PSoC5/ADC_1.c ****             result |= (uint32)((uint32)CY_GET_REG16(ADC_1_DEC_SAMPH_16B_PTR) << 16u);
 860:Generated_Source\PSoC5/ADC_1.c ****         #endif /* CY_PSOC3 */
 861:Generated_Source\PSoC5/ADC_1.c ****     }
 862:Generated_Source\PSoC5/ADC_1.c ****     /* Clear conversion complete status in Single Sample mode with resolution above 16 bit */
 863:Generated_Source\PSoC5/ADC_1.c ****     if(ADC_1_stopConversion != 0u)
 864:Generated_Source\PSoC5/ADC_1.c ****     {
 865:Generated_Source\PSoC5/ADC_1.c ****         ADC_1_convDone = 0u;
 866:Generated_Source\PSoC5/ADC_1.c ****     }
 867:Generated_Source\PSoC5/ADC_1.c **** 
 868:Generated_Source\PSoC5/ADC_1.c ****     return ((int32)result);
 869:Generated_Source\PSoC5/ADC_1.c **** }
 870:Generated_Source\PSoC5/ADC_1.c **** 
 871:Generated_Source\PSoC5/ADC_1.c **** 
 872:Generated_Source\PSoC5/ADC_1.c **** /*******************************************************************************
 873:Generated_Source\PSoC5/ADC_1.c **** * Function Name: ADC_1_SetOffset
 874:Generated_Source\PSoC5/ADC_1.c **** ********************************************************************************
 875:Generated_Source\PSoC5/ADC_1.c **** *
 876:Generated_Source\PSoC5/ADC_1.c **** * Summary:
 877:Generated_Source\PSoC5/ADC_1.c **** *  Sets the ADC offset which is used by the functions ADC_CountsTo_uVolts, 
 878:Generated_Source\PSoC5/ADC_1.c **** *  ADC_CountsTo_mVolts, and ADC_CountsTo_Volts to subtract the offset from the 
 879:Generated_Source\PSoC5/ADC_1.c **** *  given reading before calculating the voltage conversion.
 880:Generated_Source\PSoC5/ADC_1.c **** *
 881:Generated_Source\PSoC5/ADC_1.c **** * Parameters:
 882:Generated_Source\PSoC5/ADC_1.c **** *  int32:  This value is a measured value when the inputs are shorted or 
 883:Generated_Source\PSoC5/ADC_1.c **** *          connected to the same input voltage.
 884:Generated_Source\PSoC5/ADC_1.c **** *
 885:Generated_Source\PSoC5/ADC_1.c **** * Return:
 886:Generated_Source\PSoC5/ADC_1.c **** *  None
ARM GAS  C:\Users\karth\AppData\Local\Temp\ccX3KBuT.s 			page 17


 887:Generated_Source\PSoC5/ADC_1.c **** *
 888:Generated_Source\PSoC5/ADC_1.c **** * Global variables:
 889:Generated_Source\PSoC5/ADC_1.c **** *  ADC_1_Offset:  Modified to set the user provided offset. This
 890:Generated_Source\PSoC5/ADC_1.c **** *  variable is used for offset calibration purpose.
 891:Generated_Source\PSoC5/ADC_1.c **** *
 892:Generated_Source\PSoC5/ADC_1.c **** * Side Effects:
 893:Generated_Source\PSoC5/ADC_1.c **** *  Affects the ADC_1_CountsTo_Volts,
 894:Generated_Source\PSoC5/ADC_1.c **** *  ADC_1_CountsTo_mVolts, ADC_1_CountsTo_uVolts functions
 895:Generated_Source\PSoC5/ADC_1.c **** *  by subtracting the given offset.
 896:Generated_Source\PSoC5/ADC_1.c **** *
 897:Generated_Source\PSoC5/ADC_1.c **** *******************************************************************************/
 898:Generated_Source\PSoC5/ADC_1.c **** void ADC_1_SetOffset(int32 offset) 
 899:Generated_Source\PSoC5/ADC_1.c **** {
 900:Generated_Source\PSoC5/ADC_1.c **** 
 901:Generated_Source\PSoC5/ADC_1.c ****     ADC_1_Offset = offset;
 902:Generated_Source\PSoC5/ADC_1.c **** }
 903:Generated_Source\PSoC5/ADC_1.c **** 
 904:Generated_Source\PSoC5/ADC_1.c **** 
 905:Generated_Source\PSoC5/ADC_1.c **** /*******************************************************************************
 906:Generated_Source\PSoC5/ADC_1.c **** * Function Name: ADC_1_SetGain
 907:Generated_Source\PSoC5/ADC_1.c **** ********************************************************************************
 908:Generated_Source\PSoC5/ADC_1.c **** *
 909:Generated_Source\PSoC5/ADC_1.c **** * Summary:
 910:Generated_Source\PSoC5/ADC_1.c **** *  Sets the ADC gain in counts per volt for the voltage conversion
 911:Generated_Source\PSoC5/ADC_1.c **** *  functions below. This value is set by default by the reference and
 912:Generated_Source\PSoC5/ADC_1.c **** *  input range settings. It should only be used to further calibrate the
 913:Generated_Source\PSoC5/ADC_1.c **** *  ADC with a known input or if an external reference is used. This
 914:Generated_Source\PSoC5/ADC_1.c **** *  function may also be used to calibrate an entire signal chain, not
 915:Generated_Source\PSoC5/ADC_1.c **** *  just the ADC.
 916:Generated_Source\PSoC5/ADC_1.c **** *
 917:Generated_Source\PSoC5/ADC_1.c **** * Parameters:
 918:Generated_Source\PSoC5/ADC_1.c **** *  int32: ADC gain in counts per volt.
 919:Generated_Source\PSoC5/ADC_1.c **** *
 920:Generated_Source\PSoC5/ADC_1.c **** * Return:
 921:Generated_Source\PSoC5/ADC_1.c **** *  None
 922:Generated_Source\PSoC5/ADC_1.c **** *
 923:Generated_Source\PSoC5/ADC_1.c **** * Global variables:
 924:Generated_Source\PSoC5/ADC_1.c **** *  ADC_1_CountsPerVolt:  modified to set the ADC gain in counts
 925:Generated_Source\PSoC5/ADC_1.c **** *   per volt.
 926:Generated_Source\PSoC5/ADC_1.c **** *
 927:Generated_Source\PSoC5/ADC_1.c **** * Side Effects:
 928:Generated_Source\PSoC5/ADC_1.c **** *  Affects the ADC_1_CountsTo_Volts,
 929:Generated_Source\PSoC5/ADC_1.c **** *  ADC_1_CountsTo_mVolts, ADC_1_CountsTo_uVolts functions
 930:Generated_Source\PSoC5/ADC_1.c **** *  supplying the correct conversion between ADC counts and voltage.
 931:Generated_Source\PSoC5/ADC_1.c **** *
 932:Generated_Source\PSoC5/ADC_1.c **** *******************************************************************************/
 933:Generated_Source\PSoC5/ADC_1.c **** void ADC_1_SetGain(int32 adcGain) 
 934:Generated_Source\PSoC5/ADC_1.c **** {
 935:Generated_Source\PSoC5/ADC_1.c ****     ADC_1_CountsPerVolt = adcGain;
 936:Generated_Source\PSoC5/ADC_1.c **** }
 937:Generated_Source\PSoC5/ADC_1.c **** 
 938:Generated_Source\PSoC5/ADC_1.c **** 
 939:Generated_Source\PSoC5/ADC_1.c **** /*******************************************************************************
 940:Generated_Source\PSoC5/ADC_1.c **** * Function Name: ADC_1_CountsTo_mVolts
 941:Generated_Source\PSoC5/ADC_1.c **** ********************************************************************************
 942:Generated_Source\PSoC5/ADC_1.c **** *
 943:Generated_Source\PSoC5/ADC_1.c **** * Summary:
ARM GAS  C:\Users\karth\AppData\Local\Temp\ccX3KBuT.s 			page 18


 944:Generated_Source\PSoC5/ADC_1.c **** *  Converts the ADC counts output to mVolts as a 16-bit integer. For
 945:Generated_Source\PSoC5/ADC_1.c **** *  example, if the ADC measured 0.534 volts, the return value would
 946:Generated_Source\PSoC5/ADC_1.c **** *  be 534 mVolts.
 947:Generated_Source\PSoC5/ADC_1.c **** *
 948:Generated_Source\PSoC5/ADC_1.c **** * Parameters:
 949:Generated_Source\PSoC5/ADC_1.c **** *  int32: adcCounts Result from the ADC conversion.
 950:Generated_Source\PSoC5/ADC_1.c **** *
 951:Generated_Source\PSoC5/ADC_1.c **** * Return:
 952:Generated_Source\PSoC5/ADC_1.c **** *  int16:  Result in mVolts
 953:Generated_Source\PSoC5/ADC_1.c **** *
 954:Generated_Source\PSoC5/ADC_1.c **** * Global variables:
 955:Generated_Source\PSoC5/ADC_1.c **** *  ADC_1_CountsPerVolt:  used to convert ADC counts to mVolts.
 956:Generated_Source\PSoC5/ADC_1.c **** *  ADC_1_Offset:  Used as the offset while converting ADC counts
 957:Generated_Source\PSoC5/ADC_1.c **** *   to mVolts.
 958:Generated_Source\PSoC5/ADC_1.c **** *
 959:Generated_Source\PSoC5/ADC_1.c **** *******************************************************************************/
 960:Generated_Source\PSoC5/ADC_1.c **** int16 ADC_1_CountsTo_mVolts(int32 adcCounts) 
 961:Generated_Source\PSoC5/ADC_1.c **** {
 962:Generated_Source\PSoC5/ADC_1.c **** 
 963:Generated_Source\PSoC5/ADC_1.c ****     int16 mVolts;
 964:Generated_Source\PSoC5/ADC_1.c **** 
 965:Generated_Source\PSoC5/ADC_1.c ****     /* Convert adcCounts to the right align if left option selected */
 966:Generated_Source\PSoC5/ADC_1.c ****     #if(ADC_1_CFG1_DEC_DIV != 0)
 967:Generated_Source\PSoC5/ADC_1.c ****         if(ADC_1_Config == ADC_1_CFG1)
 968:Generated_Source\PSoC5/ADC_1.c ****         {
 969:Generated_Source\PSoC5/ADC_1.c ****             adcCounts /= ADC_1_CFG1_DEC_DIV;
 970:Generated_Source\PSoC5/ADC_1.c ****         }
 971:Generated_Source\PSoC5/ADC_1.c ****     #endif /* ADC_1_CFG1_DEC_DIV */
 972:Generated_Source\PSoC5/ADC_1.c ****     #if((ADC_1_CFG2_DEC_DIV != 0) && (ADC_1_DEFAULT_NUM_CONFIGS > 1))
 973:Generated_Source\PSoC5/ADC_1.c ****         if(ADC_1_Config == ADC_1_CFG2)
 974:Generated_Source\PSoC5/ADC_1.c ****         {
 975:Generated_Source\PSoC5/ADC_1.c ****             adcCounts /= ADC_1_CFG2_DEC_DIV;
 976:Generated_Source\PSoC5/ADC_1.c ****         }
 977:Generated_Source\PSoC5/ADC_1.c ****     #endif /* ADC_1_CFG2_DEC_DIV */
 978:Generated_Source\PSoC5/ADC_1.c ****     #if((ADC_1_CFG3_DEC_DIV != 0) && (ADC_1_DEFAULT_NUM_CONFIGS > 2))
 979:Generated_Source\PSoC5/ADC_1.c ****         if(ADC_1_Config == ADC_1_CFG3)
 980:Generated_Source\PSoC5/ADC_1.c ****         {
 981:Generated_Source\PSoC5/ADC_1.c ****             adcCounts /= ADC_1_CFG3_DEC_DIV;
 982:Generated_Source\PSoC5/ADC_1.c ****         }
 983:Generated_Source\PSoC5/ADC_1.c ****     #endif /* ADC_1_CFG2_DEC_DIV */
 984:Generated_Source\PSoC5/ADC_1.c ****     #if((ADC_1_CFG4_DEC_DIV != 0) && (ADC_1_DEFAULT_NUM_CONFIGS > 3))
 985:Generated_Source\PSoC5/ADC_1.c ****         if(ADC_1_Config == ADC_1_CFG4)
 986:Generated_Source\PSoC5/ADC_1.c ****         {
 987:Generated_Source\PSoC5/ADC_1.c ****             adcCounts /= ADC_1_CFG4_DEC_DIV;
 988:Generated_Source\PSoC5/ADC_1.c ****         }
 989:Generated_Source\PSoC5/ADC_1.c ****     #endif /* ADC_1_CFG2_DEC_DIV */
 990:Generated_Source\PSoC5/ADC_1.c **** 
 991:Generated_Source\PSoC5/ADC_1.c ****     /* Subtract ADC offset */
 992:Generated_Source\PSoC5/ADC_1.c ****     adcCounts -= ADC_1_Offset;
 993:Generated_Source\PSoC5/ADC_1.c **** 
 994:Generated_Source\PSoC5/ADC_1.c ****     mVolts = (int16)(( adcCounts * ADC_1_1MV_COUNTS ) / ADC_1_CountsPerVolt) ;
 995:Generated_Source\PSoC5/ADC_1.c **** 
 996:Generated_Source\PSoC5/ADC_1.c ****     return(mVolts);
 997:Generated_Source\PSoC5/ADC_1.c **** }
 998:Generated_Source\PSoC5/ADC_1.c **** 
 999:Generated_Source\PSoC5/ADC_1.c **** 
1000:Generated_Source\PSoC5/ADC_1.c **** /*******************************************************************************
ARM GAS  C:\Users\karth\AppData\Local\Temp\ccX3KBuT.s 			page 19


1001:Generated_Source\PSoC5/ADC_1.c **** * Function Name: ADC_1_CountsTo_Volts
1002:Generated_Source\PSoC5/ADC_1.c **** ********************************************************************************
1003:Generated_Source\PSoC5/ADC_1.c **** *
1004:Generated_Source\PSoC5/ADC_1.c **** * Summary:
1005:Generated_Source\PSoC5/ADC_1.c **** *  Converts the ADC output to Volts as a floating point number. For
1006:Generated_Source\PSoC5/ADC_1.c **** *  example, if the ADC measure a voltage of 1.2345 Volts, the
1007:Generated_Source\PSoC5/ADC_1.c **** *  returned result would be +1.2345 Volts.
1008:Generated_Source\PSoC5/ADC_1.c **** *
1009:Generated_Source\PSoC5/ADC_1.c **** * Parameters:
1010:Generated_Source\PSoC5/ADC_1.c **** *  int32 adcCounts:  Result from the ADC conversion.
1011:Generated_Source\PSoC5/ADC_1.c **** *
1012:Generated_Source\PSoC5/ADC_1.c **** * Return:
1013:Generated_Source\PSoC5/ADC_1.c **** *  float32: Result in Volts
1014:Generated_Source\PSoC5/ADC_1.c **** *
1015:Generated_Source\PSoC5/ADC_1.c **** * Global variables:
1016:Generated_Source\PSoC5/ADC_1.c **** *  ADC_1_CountsPerVolt:  used to convert to Volts.
1017:Generated_Source\PSoC5/ADC_1.c **** *  ADC_1_Offset:  Used as the offset while converting ADC counts
1018:Generated_Source\PSoC5/ADC_1.c **** *   to Volts.
1019:Generated_Source\PSoC5/ADC_1.c **** *
1020:Generated_Source\PSoC5/ADC_1.c **** *******************************************************************************/
1021:Generated_Source\PSoC5/ADC_1.c **** float32 ADC_1_CountsTo_Volts(int32 adcCounts) 
1022:Generated_Source\PSoC5/ADC_1.c **** {
1023:Generated_Source\PSoC5/ADC_1.c **** 
1024:Generated_Source\PSoC5/ADC_1.c ****     float32 Volts;
1025:Generated_Source\PSoC5/ADC_1.c **** 
1026:Generated_Source\PSoC5/ADC_1.c ****     /* Convert adcCounts to the right align if left option selected */
1027:Generated_Source\PSoC5/ADC_1.c ****     #if(ADC_1_CFG1_DEC_DIV != 0)
1028:Generated_Source\PSoC5/ADC_1.c ****         if(ADC_1_Config == ADC_1_CFG1)
1029:Generated_Source\PSoC5/ADC_1.c ****         {
1030:Generated_Source\PSoC5/ADC_1.c ****             adcCounts /= ADC_1_CFG1_DEC_DIV;
1031:Generated_Source\PSoC5/ADC_1.c ****         }
1032:Generated_Source\PSoC5/ADC_1.c ****     #endif /* ADC_1_CFG1_DEC_DIV */
1033:Generated_Source\PSoC5/ADC_1.c ****     #if((ADC_1_CFG2_DEC_DIV != 0) && (ADC_1_DEFAULT_NUM_CONFIGS > 1))
1034:Generated_Source\PSoC5/ADC_1.c ****         if(ADC_1_Config == ADC_1_CFG2)
1035:Generated_Source\PSoC5/ADC_1.c ****         {
1036:Generated_Source\PSoC5/ADC_1.c ****             adcCounts /= ADC_1_CFG2_DEC_DIV;
1037:Generated_Source\PSoC5/ADC_1.c ****         }
1038:Generated_Source\PSoC5/ADC_1.c ****     #endif /* ADC_1_CFG2_DEC_DIV */
1039:Generated_Source\PSoC5/ADC_1.c ****     #if((ADC_1_CFG3_DEC_DIV != 0) && (ADC_1_DEFAULT_NUM_CONFIGS > 2))
1040:Generated_Source\PSoC5/ADC_1.c ****         if(ADC_1_Config == ADC_1_CFG3)
1041:Generated_Source\PSoC5/ADC_1.c ****         {
1042:Generated_Source\PSoC5/ADC_1.c ****             adcCounts /= ADC_1_CFG3_DEC_DIV;
1043:Generated_Source\PSoC5/ADC_1.c ****         }
1044:Generated_Source\PSoC5/ADC_1.c ****     #endif /* ADC_1_CFG2_DEC_DIV */
1045:Generated_Source\PSoC5/ADC_1.c ****     #if((ADC_1_CFG4_DEC_DIV != 0) && (ADC_1_DEFAULT_NUM_CONFIGS > 3))
1046:Generated_Source\PSoC5/ADC_1.c ****         if(ADC_1_Config == ADC_1_CFG4)
1047:Generated_Source\PSoC5/ADC_1.c ****         {
1048:Generated_Source\PSoC5/ADC_1.c ****             adcCounts /= ADC_1_CFG4_DEC_DIV;
1049:Generated_Source\PSoC5/ADC_1.c ****         }
1050:Generated_Source\PSoC5/ADC_1.c ****     #endif /* ADC_1_CFG2_DEC_DIV */
1051:Generated_Source\PSoC5/ADC_1.c **** 
1052:Generated_Source\PSoC5/ADC_1.c ****     /* Subtract ADC offset */
1053:Generated_Source\PSoC5/ADC_1.c ****     adcCounts -= ADC_1_Offset;
1054:Generated_Source\PSoC5/ADC_1.c **** 
1055:Generated_Source\PSoC5/ADC_1.c ****     Volts = (float32)adcCounts / (float32)ADC_1_CountsPerVolt;
1056:Generated_Source\PSoC5/ADC_1.c **** 
1057:Generated_Source\PSoC5/ADC_1.c ****     return( Volts );
ARM GAS  C:\Users\karth\AppData\Local\Temp\ccX3KBuT.s 			page 20


1058:Generated_Source\PSoC5/ADC_1.c **** }
1059:Generated_Source\PSoC5/ADC_1.c **** 
1060:Generated_Source\PSoC5/ADC_1.c **** 
1061:Generated_Source\PSoC5/ADC_1.c **** /*******************************************************************************
1062:Generated_Source\PSoC5/ADC_1.c **** * Function Name: ADC_1_CountsTo_uVolts
1063:Generated_Source\PSoC5/ADC_1.c **** ********************************************************************************
1064:Generated_Source\PSoC5/ADC_1.c **** *
1065:Generated_Source\PSoC5/ADC_1.c **** * Summary:
1066:Generated_Source\PSoC5/ADC_1.c **** *  Converts the ADC output to uVolts as a 32-bit integer. For example,
1067:Generated_Source\PSoC5/ADC_1.c **** *  if the ADC measured -0.02345 Volts, the return value would be -23450 uVolts.
1068:Generated_Source\PSoC5/ADC_1.c **** *
1069:Generated_Source\PSoC5/ADC_1.c **** * Parameters:
1070:Generated_Source\PSoC5/ADC_1.c **** *  int32 adcCounts: Result from the ADC conversion.
1071:Generated_Source\PSoC5/ADC_1.c **** *
1072:Generated_Source\PSoC5/ADC_1.c **** * Return:
1073:Generated_Source\PSoC5/ADC_1.c **** *  int32:  Result in uVolts
1074:Generated_Source\PSoC5/ADC_1.c **** *
1075:Generated_Source\PSoC5/ADC_1.c **** * Global variables:
1076:Generated_Source\PSoC5/ADC_1.c **** *  ADC_1_CountsPerVolt:  used to convert ADC counts to mVolts.
1077:Generated_Source\PSoC5/ADC_1.c **** *  ADC_1_Offset:  Used as the offset while converting ADC counts
1078:Generated_Source\PSoC5/ADC_1.c **** *   to mVolts.
1079:Generated_Source\PSoC5/ADC_1.c **** *
1080:Generated_Source\PSoC5/ADC_1.c **** * Theory:
1081:Generated_Source\PSoC5/ADC_1.c **** *  Care must be taken to not exceed the maximum value for a 31 bit signed
1082:Generated_Source\PSoC5/ADC_1.c **** *  number in the conversion to uVolts and at the same time not lose resolution.
1083:Generated_Source\PSoC5/ADC_1.c **** *
1084:Generated_Source\PSoC5/ADC_1.c **** *  uVolts = ((A * adcCounts) / ((int32)ADC_1_CountsPerVolt / B));
1085:Generated_Source\PSoC5/ADC_1.c **** *
1086:Generated_Source\PSoC5/ADC_1.c **** *******************************************************************************/
1087:Generated_Source\PSoC5/ADC_1.c **** int32 ADC_1_CountsTo_uVolts(int32 adcCounts) 
1088:Generated_Source\PSoC5/ADC_1.c **** {
1089:Generated_Source\PSoC5/ADC_1.c **** 
1090:Generated_Source\PSoC5/ADC_1.c ****     int32 uVolts;
1091:Generated_Source\PSoC5/ADC_1.c ****     int32 coefA;
1092:Generated_Source\PSoC5/ADC_1.c ****     int32 coefB;
1093:Generated_Source\PSoC5/ADC_1.c ****     uint8 resolution;
1094:Generated_Source\PSoC5/ADC_1.c **** 
1095:Generated_Source\PSoC5/ADC_1.c ****     /* Set the resolution based on the configuration */
1096:Generated_Source\PSoC5/ADC_1.c ****     /* Convert adcCounts to the right align if left option selected */
1097:Generated_Source\PSoC5/ADC_1.c ****     if (ADC_1_Config == ADC_1_CFG1)
1098:Generated_Source\PSoC5/ADC_1.c ****     {
1099:Generated_Source\PSoC5/ADC_1.c ****         resolution = ADC_1_CFG1_RESOLUTION;
1100:Generated_Source\PSoC5/ADC_1.c ****         #if(ADC_1_CFG1_DEC_DIV != 0)
1101:Generated_Source\PSoC5/ADC_1.c ****             adcCounts /= ADC_1_CFG1_DEC_DIV;
1102:Generated_Source\PSoC5/ADC_1.c ****         #endif /* ADC_1_CFG1_DEC_DIV */
1103:Generated_Source\PSoC5/ADC_1.c ****     }
1104:Generated_Source\PSoC5/ADC_1.c ****     else if (ADC_1_Config == ADC_1_CFG2)
1105:Generated_Source\PSoC5/ADC_1.c ****     {
1106:Generated_Source\PSoC5/ADC_1.c ****         resolution = ADC_1_CFG2_RESOLUTION;
1107:Generated_Source\PSoC5/ADC_1.c ****         #if(ADC_1_CFG2_DEC_DIV != 0)
1108:Generated_Source\PSoC5/ADC_1.c ****             adcCounts /= ADC_1_CFG2_DEC_DIV;
1109:Generated_Source\PSoC5/ADC_1.c ****         #endif /* ADC_1_CFG2_DEC_DIV */
1110:Generated_Source\PSoC5/ADC_1.c ****     }
1111:Generated_Source\PSoC5/ADC_1.c ****     else if (ADC_1_Config == ADC_1_CFG3)
1112:Generated_Source\PSoC5/ADC_1.c ****     {
1113:Generated_Source\PSoC5/ADC_1.c ****         resolution = ADC_1_CFG3_RESOLUTION;
1114:Generated_Source\PSoC5/ADC_1.c ****         #if(ADC_1_CFG3_DEC_DIV != 0)
ARM GAS  C:\Users\karth\AppData\Local\Temp\ccX3KBuT.s 			page 21


1115:Generated_Source\PSoC5/ADC_1.c ****             adcCounts /= ADC_1_CFG3_DEC_DIV;
1116:Generated_Source\PSoC5/ADC_1.c ****         #endif /* ADC_1_CFG3_DEC_DIV */
1117:Generated_Source\PSoC5/ADC_1.c ****     }
1118:Generated_Source\PSoC5/ADC_1.c ****     else
1119:Generated_Source\PSoC5/ADC_1.c ****     {
1120:Generated_Source\PSoC5/ADC_1.c ****         resolution = ADC_1_CFG4_RESOLUTION;
1121:Generated_Source\PSoC5/ADC_1.c ****         #if(ADC_1_CFG4_DEC_DIV != 0)
1122:Generated_Source\PSoC5/ADC_1.c ****             adcCounts /= ADC_1_CFG4_DEC_DIV;
1123:Generated_Source\PSoC5/ADC_1.c ****         #endif /* ADC_1_CFG4_DEC_DIV */
1124:Generated_Source\PSoC5/ADC_1.c ****     }
1125:Generated_Source\PSoC5/ADC_1.c **** 
1126:Generated_Source\PSoC5/ADC_1.c ****     switch (resolution)
1127:Generated_Source\PSoC5/ADC_1.c ****     {
1128:Generated_Source\PSoC5/ADC_1.c ****         #if( (ADC_1_CFG1_RESOLUTION == ADC_1__BITS_12) || \
1129:Generated_Source\PSoC5/ADC_1.c ****              (ADC_1_CFG2_RESOLUTION == ADC_1__BITS_12) || \
1130:Generated_Source\PSoC5/ADC_1.c ****              (ADC_1_CFG3_RESOLUTION == ADC_1__BITS_12) || \
1131:Generated_Source\PSoC5/ADC_1.c ****              (ADC_1_CFG4_RESOLUTION == ADC_1__BITS_12) )
1132:Generated_Source\PSoC5/ADC_1.c ****             case (uint8)ADC_1__BITS_12:
1133:Generated_Source\PSoC5/ADC_1.c ****                 coefA = ADC_1_1UV_COUNTS / ADC_1_DIVISOR_2;
1134:Generated_Source\PSoC5/ADC_1.c ****                 coefB = ADC_1_DIVISOR_2;
1135:Generated_Source\PSoC5/ADC_1.c ****                 break;
1136:Generated_Source\PSoC5/ADC_1.c ****         #endif /* ADC_1__BITS_12 */    
1137:Generated_Source\PSoC5/ADC_1.c ****         #if( (ADC_1_CFG1_RESOLUTION == ADC_1__BITS_13) || \
1138:Generated_Source\PSoC5/ADC_1.c ****              (ADC_1_CFG2_RESOLUTION == ADC_1__BITS_13) || \
1139:Generated_Source\PSoC5/ADC_1.c ****              (ADC_1_CFG3_RESOLUTION == ADC_1__BITS_13) || \
1140:Generated_Source\PSoC5/ADC_1.c ****              (ADC_1_CFG4_RESOLUTION == ADC_1__BITS_13) )
1141:Generated_Source\PSoC5/ADC_1.c ****             case (uint8)ADC_1__BITS_13:
1142:Generated_Source\PSoC5/ADC_1.c ****                 coefA = ADC_1_1UV_COUNTS / ADC_1_DIVISOR_4;
1143:Generated_Source\PSoC5/ADC_1.c ****                 coefB = ADC_1_DIVISOR_4;
1144:Generated_Source\PSoC5/ADC_1.c ****                 break;
1145:Generated_Source\PSoC5/ADC_1.c ****         #endif /* ADC_1__BITS_13 */    
1146:Generated_Source\PSoC5/ADC_1.c ****         #if( (ADC_1_CFG1_RESOLUTION == ADC_1__BITS_14) || \
1147:Generated_Source\PSoC5/ADC_1.c ****              (ADC_1_CFG2_RESOLUTION == ADC_1__BITS_14) || \
1148:Generated_Source\PSoC5/ADC_1.c ****              (ADC_1_CFG3_RESOLUTION == ADC_1__BITS_14) || \
1149:Generated_Source\PSoC5/ADC_1.c ****              (ADC_1_CFG4_RESOLUTION == ADC_1__BITS_14) )
1150:Generated_Source\PSoC5/ADC_1.c ****             case (uint8)ADC_1__BITS_14:
1151:Generated_Source\PSoC5/ADC_1.c ****                 coefA = ADC_1_1UV_COUNTS / ADC_1_DIVISOR_8;
1152:Generated_Source\PSoC5/ADC_1.c ****                 coefB = ADC_1_DIVISOR_8;
1153:Generated_Source\PSoC5/ADC_1.c ****                 break;
1154:Generated_Source\PSoC5/ADC_1.c ****         #endif /* ADC_1__BITS_14 */    
1155:Generated_Source\PSoC5/ADC_1.c ****         #if( (ADC_1_CFG1_RESOLUTION == ADC_1__BITS_15) || \
1156:Generated_Source\PSoC5/ADC_1.c ****              (ADC_1_CFG2_RESOLUTION == ADC_1__BITS_15) || \
1157:Generated_Source\PSoC5/ADC_1.c ****              (ADC_1_CFG3_RESOLUTION == ADC_1__BITS_15) || \
1158:Generated_Source\PSoC5/ADC_1.c ****              (ADC_1_CFG4_RESOLUTION == ADC_1__BITS_15) )
1159:Generated_Source\PSoC5/ADC_1.c ****             case (uint8)ADC_1__BITS_15:
1160:Generated_Source\PSoC5/ADC_1.c ****                 coefA = ADC_1_1UV_COUNTS / ADC_1_DIVISOR_16;
1161:Generated_Source\PSoC5/ADC_1.c ****                 coefB = ADC_1_DIVISOR_16;
1162:Generated_Source\PSoC5/ADC_1.c ****                 break;
1163:Generated_Source\PSoC5/ADC_1.c ****         #endif /* ADC_1__BITS_15 */    
1164:Generated_Source\PSoC5/ADC_1.c ****         #if( (ADC_1_CFG1_RESOLUTION == ADC_1__BITS_16) || \
1165:Generated_Source\PSoC5/ADC_1.c ****              (ADC_1_CFG2_RESOLUTION == ADC_1__BITS_16) || \
1166:Generated_Source\PSoC5/ADC_1.c ****              (ADC_1_CFG3_RESOLUTION == ADC_1__BITS_16) || \
1167:Generated_Source\PSoC5/ADC_1.c ****              (ADC_1_CFG4_RESOLUTION == ADC_1__BITS_16) )
1168:Generated_Source\PSoC5/ADC_1.c ****             case (uint8)ADC_1__BITS_16:
1169:Generated_Source\PSoC5/ADC_1.c ****                 coefA = ADC_1_1UV_COUNTS / ADC_1_DIVISOR_32;
1170:Generated_Source\PSoC5/ADC_1.c ****                 coefB = ADC_1_DIVISOR_32;
1171:Generated_Source\PSoC5/ADC_1.c ****                 break;
ARM GAS  C:\Users\karth\AppData\Local\Temp\ccX3KBuT.s 			page 22


1172:Generated_Source\PSoC5/ADC_1.c ****         #endif /* ADC_1__BITS_16 */    
1173:Generated_Source\PSoC5/ADC_1.c ****         #if( (ADC_1_CFG1_RESOLUTION == ADC_1__BITS_17) || \
1174:Generated_Source\PSoC5/ADC_1.c ****              (ADC_1_CFG2_RESOLUTION == ADC_1__BITS_17) || \
1175:Generated_Source\PSoC5/ADC_1.c ****              (ADC_1_CFG3_RESOLUTION == ADC_1__BITS_17) || \
1176:Generated_Source\PSoC5/ADC_1.c ****              (ADC_1_CFG4_RESOLUTION == ADC_1__BITS_17) )
1177:Generated_Source\PSoC5/ADC_1.c ****             case (uint8)ADC_1__BITS_17:
1178:Generated_Source\PSoC5/ADC_1.c ****                 coefA = ADC_1_1UV_COUNTS / ADC_1_DIVISOR_64;
1179:Generated_Source\PSoC5/ADC_1.c ****                 coefB = ADC_1_DIVISOR_64;
1180:Generated_Source\PSoC5/ADC_1.c ****                 break;
1181:Generated_Source\PSoC5/ADC_1.c ****         #endif /* ADC_1__BITS_17 */    
1182:Generated_Source\PSoC5/ADC_1.c ****         #if( (ADC_1_CFG1_RESOLUTION == ADC_1__BITS_18) || \
1183:Generated_Source\PSoC5/ADC_1.c ****              (ADC_1_CFG2_RESOLUTION == ADC_1__BITS_18) || \
1184:Generated_Source\PSoC5/ADC_1.c ****              (ADC_1_CFG3_RESOLUTION == ADC_1__BITS_18) || \
1185:Generated_Source\PSoC5/ADC_1.c ****              (ADC_1_CFG4_RESOLUTION == ADC_1__BITS_18) )
1186:Generated_Source\PSoC5/ADC_1.c ****             case (uint8)ADC_1__BITS_18:
1187:Generated_Source\PSoC5/ADC_1.c ****                 coefA = ADC_1_1UV_COUNTS / ADC_1_DIVISOR_125;
1188:Generated_Source\PSoC5/ADC_1.c ****                 coefB = ADC_1_DIVISOR_125;
1189:Generated_Source\PSoC5/ADC_1.c ****                 break;
1190:Generated_Source\PSoC5/ADC_1.c ****         #endif /* ADC_1__BITS_18 */    
1191:Generated_Source\PSoC5/ADC_1.c ****         #if( (ADC_1_CFG1_RESOLUTION == ADC_1__BITS_19) || \
1192:Generated_Source\PSoC5/ADC_1.c ****              (ADC_1_CFG2_RESOLUTION == ADC_1__BITS_19) || \
1193:Generated_Source\PSoC5/ADC_1.c ****              (ADC_1_CFG3_RESOLUTION == ADC_1__BITS_19) || \
1194:Generated_Source\PSoC5/ADC_1.c ****              (ADC_1_CFG4_RESOLUTION == ADC_1__BITS_19) )
1195:Generated_Source\PSoC5/ADC_1.c ****             case (uint8)ADC_1__BITS_19:
1196:Generated_Source\PSoC5/ADC_1.c ****                 coefA = ADC_1_1UV_COUNTS / ADC_1_DIVISOR_250;
1197:Generated_Source\PSoC5/ADC_1.c ****                 coefB = ADC_1_DIVISOR_250;
1198:Generated_Source\PSoC5/ADC_1.c ****                 break;
1199:Generated_Source\PSoC5/ADC_1.c ****         #endif /* ADC_1__BITS_19 */    
1200:Generated_Source\PSoC5/ADC_1.c ****         #if( (ADC_1_CFG1_RESOLUTION == ADC_1__BITS_20) || \
1201:Generated_Source\PSoC5/ADC_1.c ****              (ADC_1_CFG2_RESOLUTION == ADC_1__BITS_20) || \
1202:Generated_Source\PSoC5/ADC_1.c ****              (ADC_1_CFG3_RESOLUTION == ADC_1__BITS_20) || \
1203:Generated_Source\PSoC5/ADC_1.c ****              (ADC_1_CFG4_RESOLUTION == ADC_1__BITS_20) )
1204:Generated_Source\PSoC5/ADC_1.c ****             case (uint8)ADC_1__BITS_20:
1205:Generated_Source\PSoC5/ADC_1.c ****                 coefA = ADC_1_1UV_COUNTS / ADC_1_DIVISOR_500;
1206:Generated_Source\PSoC5/ADC_1.c ****                 coefB = ADC_1_DIVISOR_500;
1207:Generated_Source\PSoC5/ADC_1.c ****                 break;
1208:Generated_Source\PSoC5/ADC_1.c ****         #endif /* ADC_1__BITS_20 */    
1209:Generated_Source\PSoC5/ADC_1.c ****         default:    /* resolution < 12 */
1210:Generated_Source\PSoC5/ADC_1.c ****             /* 11 bits ADC + 2^20(1048576) = 31 bits */
1211:Generated_Source\PSoC5/ADC_1.c ****             coefA = ADC_1_1UV_COUNTS;
1212:Generated_Source\PSoC5/ADC_1.c ****             coefB = ADC_1_DIVISOR_1;
1213:Generated_Source\PSoC5/ADC_1.c ****             break;
1214:Generated_Source\PSoC5/ADC_1.c ****     }
1215:Generated_Source\PSoC5/ADC_1.c ****     coefB = ADC_1_CountsPerVolt / coefB;
1216:Generated_Source\PSoC5/ADC_1.c ****     uVolts = ((coefA * adcCounts) / coefB) - ((coefA * ADC_1_Offset) / coefB);
1217:Generated_Source\PSoC5/ADC_1.c **** 
1218:Generated_Source\PSoC5/ADC_1.c ****     return( uVolts );
1219:Generated_Source\PSoC5/ADC_1.c **** }
1220:Generated_Source\PSoC5/ADC_1.c **** 
1221:Generated_Source\PSoC5/ADC_1.c **** 
1222:Generated_Source\PSoC5/ADC_1.c **** /*******************************************************************************
1223:Generated_Source\PSoC5/ADC_1.c **** * Function Name: ADC_1_InitConfig(uint8 config)
1224:Generated_Source\PSoC5/ADC_1.c **** ********************************************************************************
1225:Generated_Source\PSoC5/ADC_1.c **** *
1226:Generated_Source\PSoC5/ADC_1.c **** * Summary:
1227:Generated_Source\PSoC5/ADC_1.c **** *  Initializes all registers based on customizer settings
1228:Generated_Source\PSoC5/ADC_1.c **** *
ARM GAS  C:\Users\karth\AppData\Local\Temp\ccX3KBuT.s 			page 23


1229:Generated_Source\PSoC5/ADC_1.c **** * Parameters:
1230:Generated_Source\PSoC5/ADC_1.c **** *   void
1231:Generated_Source\PSoC5/ADC_1.c **** *
1232:Generated_Source\PSoC5/ADC_1.c **** * Return:
1233:Generated_Source\PSoC5/ADC_1.c **** *  None
1234:Generated_Source\PSoC5/ADC_1.c **** *
1235:Generated_Source\PSoC5/ADC_1.c **** * Global variables:
1236:Generated_Source\PSoC5/ADC_1.c **** *  ADC_1_CountsPerVolt:  Used to set the default counts per volt.
1237:Generated_Source\PSoC5/ADC_1.c **** *
1238:Generated_Source\PSoC5/ADC_1.c **** * Side Effects: Rewrites the coherency set by ADC_1_SetCoherency()
1239:Generated_Source\PSoC5/ADC_1.c **** *   API to the default value.
1240:Generated_Source\PSoC5/ADC_1.c **** *
1241:Generated_Source\PSoC5/ADC_1.c **** *******************************************************************************/
1242:Generated_Source\PSoC5/ADC_1.c **** static void ADC_1_InitConfig(uint8 config) 
1243:Generated_Source\PSoC5/ADC_1.c **** {
1244:Generated_Source\PSoC5/ADC_1.c ****     ADC_1_stopConversion = 0u;
1245:Generated_Source\PSoC5/ADC_1.c **** 
1246:Generated_Source\PSoC5/ADC_1.c ****     if (config == 1u)
1247:Generated_Source\PSoC5/ADC_1.c ****     {
1248:Generated_Source\PSoC5/ADC_1.c ****         /* Default Config */
1249:Generated_Source\PSoC5/ADC_1.c ****         ADC_1_DEC_CR_REG      = ADC_1_CFG1_DEC_CR;
1250:Generated_Source\PSoC5/ADC_1.c ****         ADC_1_DEC_SHIFT1_REG  = ADC_1_CFG1_DEC_SHIFT1;
1251:Generated_Source\PSoC5/ADC_1.c ****         ADC_1_DEC_SHIFT2_REG  = ADC_1_CFG1_DEC_SHIFT2;
1252:Generated_Source\PSoC5/ADC_1.c ****         ADC_1_DEC_DR2_REG     = ADC_1_CFG1_DEC_DR2;
1253:Generated_Source\PSoC5/ADC_1.c ****         ADC_1_DEC_DR2H_REG    = ADC_1_CFG1_DEC_DR2H;
1254:Generated_Source\PSoC5/ADC_1.c ****         ADC_1_DEC_DR1_REG     = ADC_1_CFG1_DEC_DR1;
1255:Generated_Source\PSoC5/ADC_1.c ****         ADC_1_DEC_OCOR_REG    = ADC_1_CFG1_DEC_OCOR;
1256:Generated_Source\PSoC5/ADC_1.c ****         ADC_1_DEC_OCORM_REG   = ADC_1_CFG1_DEC_OCORM;
1257:Generated_Source\PSoC5/ADC_1.c ****         ADC_1_DEC_OCORH_REG   = ADC_1_CFG1_DEC_OCORH;
1258:Generated_Source\PSoC5/ADC_1.c ****         ADC_1_DEC_COHER_REG   = ADC_1_CFG1_DEC_COHER;
1259:Generated_Source\PSoC5/ADC_1.c **** 
1260:Generated_Source\PSoC5/ADC_1.c ****         ADC_1_DSM_CR4_REG     = ADC_1_CFG1_DSM_CR4;
1261:Generated_Source\PSoC5/ADC_1.c ****         ADC_1_DSM_CR5_REG     = ADC_1_CFG1_DSM_CR5;
1262:Generated_Source\PSoC5/ADC_1.c ****         ADC_1_DSM_CR6_REG     = ADC_1_CFG1_DSM_CR6;
1263:Generated_Source\PSoC5/ADC_1.c ****         ADC_1_DSM_CR7_REG     = ADC_1_CFG1_DSM_CR7;
1264:Generated_Source\PSoC5/ADC_1.c ****         ADC_1_DSM_CR10_REG    = ADC_1_CFG1_DSM_CR10;
1265:Generated_Source\PSoC5/ADC_1.c ****         ADC_1_DSM_CR11_REG    = ADC_1_CFG1_DSM_CR11;
1266:Generated_Source\PSoC5/ADC_1.c ****         ADC_1_DSM_CR12_REG    = ADC_1_CFG1_DSM_CR12;
1267:Generated_Source\PSoC5/ADC_1.c ****         ADC_1_DSM_CR14_REG    = ADC_1_CFG1_DSM_CR14;
1268:Generated_Source\PSoC5/ADC_1.c ****         ADC_1_DSM_CR15_REG    = ADC_1_CFG1_DSM_CR15;
1269:Generated_Source\PSoC5/ADC_1.c ****         ADC_1_DSM_CR16_REG    = ADC_1_CFG1_DSM_CR16;
1270:Generated_Source\PSoC5/ADC_1.c ****         ADC_1_DSM_CR17_REG    = ADC_1_CFG1_DSM_CR17;
1271:Generated_Source\PSoC5/ADC_1.c ****         /* Set DSM_REF0_REG by disabling and enabling the PRESS circuit */
1272:Generated_Source\PSoC5/ADC_1.c ****         ADC_1_SetDSMRef0Reg(ADC_1_CFG1_DSM_REF0);
1273:Generated_Source\PSoC5/ADC_1.c ****         ADC_1_DSM_REF2_REG    = ADC_1_CFG1_DSM_REF2;
1274:Generated_Source\PSoC5/ADC_1.c ****         ADC_1_DSM_REF3_REG    = ADC_1_CFG1_DSM_REF3;
1275:Generated_Source\PSoC5/ADC_1.c **** 
1276:Generated_Source\PSoC5/ADC_1.c ****         ADC_1_DSM_BUF0_REG    = ADC_1_CFG1_DSM_BUF0;
1277:Generated_Source\PSoC5/ADC_1.c ****         ADC_1_DSM_BUF1_REG    = ADC_1_CFG1_DSM_BUF1;
1278:Generated_Source\PSoC5/ADC_1.c ****         ADC_1_DSM_BUF2_REG    = ADC_1_CFG1_DSM_BUF2;
1279:Generated_Source\PSoC5/ADC_1.c ****         ADC_1_DSM_BUF3_REG    = ADC_1_CFG1_DSM_BUF3;
1280:Generated_Source\PSoC5/ADC_1.c **** 
1281:Generated_Source\PSoC5/ADC_1.c ****         /* To select either Vssa or Vref to -ve input of DSM depending on
1282:Generated_Source\PSoC5/ADC_1.c ****         *  the input  range selected.
1283:Generated_Source\PSoC5/ADC_1.c ****         */
1284:Generated_Source\PSoC5/ADC_1.c ****         #if(ADC_1_DEFAULT_INPUT_MODE)
1285:Generated_Source\PSoC5/ADC_1.c ****             #if (ADC_1_CFG1_INPUT_RANGE == ADC_1_IR_VSSA_TO_2VREF)
ARM GAS  C:\Users\karth\AppData\Local\Temp\ccX3KBuT.s 			page 24


1286:Generated_Source\PSoC5/ADC_1.c ****                 ADC_1_AMux_Select(1u);
1287:Generated_Source\PSoC5/ADC_1.c ****             #else
1288:Generated_Source\PSoC5/ADC_1.c ****                 ADC_1_AMux_Select(0u);
1289:Generated_Source\PSoC5/ADC_1.c ****             #endif /* ADC_1_IR_VSSA_TO_2VREF) */
1290:Generated_Source\PSoC5/ADC_1.c ****         #endif /* ADC_1_DEFAULT_INPUT_MODE */
1291:Generated_Source\PSoC5/ADC_1.c **** 
1292:Generated_Source\PSoC5/ADC_1.c ****         /* Set the Conversion stop if resolution is above 16 bit and conversion
1293:Generated_Source\PSoC5/ADC_1.c ****         *   mode is Single sample
1294:Generated_Source\PSoC5/ADC_1.c ****         */
1295:Generated_Source\PSoC5/ADC_1.c ****         #if(ADC_1_CFG1_RESOLUTION > 16 && \
1296:Generated_Source\PSoC5/ADC_1.c ****             ADC_1_CFG1_CONV_MODE == ADC_1_MODE_SINGLE_SAMPLE)
1297:Generated_Source\PSoC5/ADC_1.c ****             ADC_1_stopConversion = 1u;
1298:Generated_Source\PSoC5/ADC_1.c ****         #endif /* Single sample with resolution above 16 bits. */
1299:Generated_Source\PSoC5/ADC_1.c **** 
1300:Generated_Source\PSoC5/ADC_1.c ****         ADC_1_CountsPerVolt = (int32)ADC_1_CFG1_COUNTS_PER_VOLT;
1301:Generated_Source\PSoC5/ADC_1.c **** 
1302:Generated_Source\PSoC5/ADC_1.c ****         ADC_1_Ext_CP_Clk_SetDividerRegister(ADC_1_CFG1_CP_CLK_DIVIDER, 1u);
1303:Generated_Source\PSoC5/ADC_1.c **** 
1304:Generated_Source\PSoC5/ADC_1.c ****         /* This is only valid if there is an internal clock */
1305:Generated_Source\PSoC5/ADC_1.c ****         #if(ADC_1_DEFAULT_INTERNAL_CLK)
1306:Generated_Source\PSoC5/ADC_1.c ****             ADC_1_theACLK_SetDividerRegister(ADC_1_CFG1_ADC_CLK_DIVIDER, 1u);
1307:Generated_Source\PSoC5/ADC_1.c ****         #endif /* ADC_1_DEFAULT_INTERNAL_CLK */
1308:Generated_Source\PSoC5/ADC_1.c **** 
1309:Generated_Source\PSoC5/ADC_1.c ****         #if(ADC_1_IRQ_REMOVE == 0u)
1310:Generated_Source\PSoC5/ADC_1.c ****             /* Set interrupt vector */
1311:Generated_Source\PSoC5/ADC_1.c ****             (void)CyIntSetVector(ADC_1_INTC_NUMBER, &ADC_1_ISR1);
1312:Generated_Source\PSoC5/ADC_1.c ****         #endif   /* End ADC_1_IRQ_REMOVE */
1313:Generated_Source\PSoC5/ADC_1.c ****     }
1314:Generated_Source\PSoC5/ADC_1.c **** 
1315:Generated_Source\PSoC5/ADC_1.c ****     #if(ADC_1_DEFAULT_NUM_CONFIGS > 1)
1316:Generated_Source\PSoC5/ADC_1.c ****         if(config == 2u)
1317:Generated_Source\PSoC5/ADC_1.c ****         {
1318:Generated_Source\PSoC5/ADC_1.c ****             /* Second Config */
1319:Generated_Source\PSoC5/ADC_1.c ****             ADC_1_DEC_CR_REG      = ADC_1_CFG2_DEC_CR;
1320:Generated_Source\PSoC5/ADC_1.c ****             ADC_1_DEC_SHIFT1_REG  = ADC_1_CFG2_DEC_SHIFT1;
1321:Generated_Source\PSoC5/ADC_1.c ****             ADC_1_DEC_SHIFT2_REG  = ADC_1_CFG2_DEC_SHIFT2;
1322:Generated_Source\PSoC5/ADC_1.c ****             ADC_1_DEC_DR2_REG     = ADC_1_CFG2_DEC_DR2;
1323:Generated_Source\PSoC5/ADC_1.c ****             ADC_1_DEC_DR2H_REG    = ADC_1_CFG2_DEC_DR2H;
1324:Generated_Source\PSoC5/ADC_1.c ****             ADC_1_DEC_DR1_REG     = ADC_1_CFG2_DEC_DR1;
1325:Generated_Source\PSoC5/ADC_1.c ****             ADC_1_DEC_OCOR_REG    = ADC_1_CFG2_DEC_OCOR;
1326:Generated_Source\PSoC5/ADC_1.c ****             ADC_1_DEC_OCORM_REG   = ADC_1_CFG2_DEC_OCORM;
1327:Generated_Source\PSoC5/ADC_1.c ****             ADC_1_DEC_OCORH_REG   = ADC_1_CFG2_DEC_OCORH;
1328:Generated_Source\PSoC5/ADC_1.c ****             ADC_1_DEC_COHER_REG   = ADC_1_CFG2_DEC_COHER;
1329:Generated_Source\PSoC5/ADC_1.c **** 
1330:Generated_Source\PSoC5/ADC_1.c ****             ADC_1_DSM_CR4_REG     = ADC_1_CFG2_DSM_CR4;
1331:Generated_Source\PSoC5/ADC_1.c ****             ADC_1_DSM_CR5_REG     = ADC_1_CFG2_DSM_CR5;
1332:Generated_Source\PSoC5/ADC_1.c ****             ADC_1_DSM_CR6_REG     = ADC_1_CFG2_DSM_CR6;
1333:Generated_Source\PSoC5/ADC_1.c ****             ADC_1_DSM_CR7_REG     = ADC_1_CFG2_DSM_CR7;
1334:Generated_Source\PSoC5/ADC_1.c ****             ADC_1_DSM_CR10_REG    = ADC_1_CFG2_DSM_CR10;
1335:Generated_Source\PSoC5/ADC_1.c ****             ADC_1_DSM_CR11_REG    = ADC_1_CFG2_DSM_CR11;
1336:Generated_Source\PSoC5/ADC_1.c ****             ADC_1_DSM_CR12_REG    = ADC_1_CFG2_DSM_CR12;
1337:Generated_Source\PSoC5/ADC_1.c ****             ADC_1_DSM_CR14_REG    = ADC_1_CFG2_DSM_CR14;
1338:Generated_Source\PSoC5/ADC_1.c ****             ADC_1_DSM_CR15_REG    = ADC_1_CFG2_DSM_CR15;
1339:Generated_Source\PSoC5/ADC_1.c ****             ADC_1_DSM_CR16_REG    = ADC_1_CFG2_DSM_CR16;
1340:Generated_Source\PSoC5/ADC_1.c ****             ADC_1_DSM_CR17_REG    = ADC_1_CFG2_DSM_CR17;
1341:Generated_Source\PSoC5/ADC_1.c ****             /* Set DSM_REF0_REG by disabling and enabling the PRESS cirucit */
1342:Generated_Source\PSoC5/ADC_1.c ****             ADC_1_SetDSMRef0Reg(ADC_1_CFG2_DSM_REF0);
ARM GAS  C:\Users\karth\AppData\Local\Temp\ccX3KBuT.s 			page 25


1343:Generated_Source\PSoC5/ADC_1.c ****             ADC_1_DSM_REF2_REG    = ADC_1_CFG2_DSM_REF2;
1344:Generated_Source\PSoC5/ADC_1.c ****             ADC_1_DSM_REF3_REG    = ADC_1_CFG2_DSM_REF3;
1345:Generated_Source\PSoC5/ADC_1.c **** 
1346:Generated_Source\PSoC5/ADC_1.c ****             ADC_1_DSM_BUF0_REG    = ADC_1_CFG2_DSM_BUF0;
1347:Generated_Source\PSoC5/ADC_1.c ****             ADC_1_DSM_BUF1_REG    = ADC_1_CFG2_DSM_BUF1;
1348:Generated_Source\PSoC5/ADC_1.c ****             ADC_1_DSM_BUF2_REG    = ADC_1_CFG2_DSM_BUF2;
1349:Generated_Source\PSoC5/ADC_1.c ****             ADC_1_DSM_BUF3_REG    = ADC_1_CFG2_DSM_BUF3;
1350:Generated_Source\PSoC5/ADC_1.c **** 
1351:Generated_Source\PSoC5/ADC_1.c ****             /* To select either Vssa or Vref to -ve input of DSM depending on
1352:Generated_Source\PSoC5/ADC_1.c ****             *  the input range selected.
1353:Generated_Source\PSoC5/ADC_1.c ****             */
1354:Generated_Source\PSoC5/ADC_1.c **** 
1355:Generated_Source\PSoC5/ADC_1.c ****             #if(ADC_1_DEFAULT_INPUT_MODE)
1356:Generated_Source\PSoC5/ADC_1.c ****                 #if (ADC_1_CFG2_INPUT_RANGE == ADC_1_IR_VSSA_TO_2VREF)
1357:Generated_Source\PSoC5/ADC_1.c ****                     ADC_1_AMux_Select(1u);
1358:Generated_Source\PSoC5/ADC_1.c ****                 #else
1359:Generated_Source\PSoC5/ADC_1.c ****                     ADC_1_AMux_Select(0u);
1360:Generated_Source\PSoC5/ADC_1.c ****                 #endif /* ADC_1_IR_VSSA_TO_2VREF) */
1361:Generated_Source\PSoC5/ADC_1.c ****             #endif /* ADC_1_DEFAULT_INPUT_MODE */
1362:Generated_Source\PSoC5/ADC_1.c **** 
1363:Generated_Source\PSoC5/ADC_1.c ****             /* Set the Conversion stop if resolution is above 16 bit and
1364:Generated_Source\PSoC5/ADC_1.c ****             *   conversion mode is Single sample
1365:Generated_Source\PSoC5/ADC_1.c ****             */
1366:Generated_Source\PSoC5/ADC_1.c ****             #if(ADC_1_CFG2_RESOLUTION > 16 && \
1367:Generated_Source\PSoC5/ADC_1.c ****                 ADC_1_CFG2_CONV_MODE == ADC_1_MODE_SINGLE_SAMPLE)
1368:Generated_Source\PSoC5/ADC_1.c ****                 ADC_1_stopConversion = 1u;
1369:Generated_Source\PSoC5/ADC_1.c ****             #endif /* Single sample with resolution above 16 bits. */
1370:Generated_Source\PSoC5/ADC_1.c **** 
1371:Generated_Source\PSoC5/ADC_1.c ****             ADC_1_CountsPerVolt = (int32)ADC_1_CFG2_COUNTS_PER_VOLT;
1372:Generated_Source\PSoC5/ADC_1.c **** 
1373:Generated_Source\PSoC5/ADC_1.c ****             ADC_1_Ext_CP_Clk_SetDividerRegister(ADC_1_CFG2_CP_CLK_DIVIDER, 1u);
1374:Generated_Source\PSoC5/ADC_1.c **** 
1375:Generated_Source\PSoC5/ADC_1.c ****             /* This is only valid if there is an internal clock */
1376:Generated_Source\PSoC5/ADC_1.c ****             #if(ADC_1_DEFAULT_INTERNAL_CLK)
1377:Generated_Source\PSoC5/ADC_1.c ****                 ADC_1_theACLK_SetDividerRegister(ADC_1_CFG2_ADC_CLK_DIVIDER, 1u);
1378:Generated_Source\PSoC5/ADC_1.c ****             #endif /* ADC_1_DEFAULT_INTERNAL_CLK */
1379:Generated_Source\PSoC5/ADC_1.c **** 
1380:Generated_Source\PSoC5/ADC_1.c ****             #if(ADC_1_IRQ_REMOVE == 0u)
1381:Generated_Source\PSoC5/ADC_1.c ****                 /* Set interrupt vector */
1382:Generated_Source\PSoC5/ADC_1.c ****                 (void)CyIntSetVector(ADC_1_INTC_NUMBER, &ADC_1_ISR2);
1383:Generated_Source\PSoC5/ADC_1.c ****             #endif   /* End ADC_1_IRQ_REMOVE */
1384:Generated_Source\PSoC5/ADC_1.c ****         }
1385:Generated_Source\PSoC5/ADC_1.c ****     #endif /* ADC_1_DEFAULT_NUM_CONFIGS > 1 */
1386:Generated_Source\PSoC5/ADC_1.c **** 
1387:Generated_Source\PSoC5/ADC_1.c ****     #if(ADC_1_DEFAULT_NUM_CONFIGS > 2)
1388:Generated_Source\PSoC5/ADC_1.c ****         if(config == 3u)
1389:Generated_Source\PSoC5/ADC_1.c ****         {
1390:Generated_Source\PSoC5/ADC_1.c ****             /* Third Config */
1391:Generated_Source\PSoC5/ADC_1.c ****             ADC_1_DEC_CR_REG      = ADC_1_CFG3_DEC_CR;
1392:Generated_Source\PSoC5/ADC_1.c ****             ADC_1_DEC_SHIFT1_REG  = ADC_1_CFG3_DEC_SHIFT1;
1393:Generated_Source\PSoC5/ADC_1.c ****             ADC_1_DEC_SHIFT2_REG  = ADC_1_CFG3_DEC_SHIFT2;
1394:Generated_Source\PSoC5/ADC_1.c ****             ADC_1_DEC_DR2_REG     = ADC_1_CFG3_DEC_DR2;
1395:Generated_Source\PSoC5/ADC_1.c ****             ADC_1_DEC_DR2H_REG    = ADC_1_CFG3_DEC_DR2H;
1396:Generated_Source\PSoC5/ADC_1.c ****             ADC_1_DEC_DR1_REG     = ADC_1_CFG3_DEC_DR1;
1397:Generated_Source\PSoC5/ADC_1.c ****             ADC_1_DEC_OCOR_REG    = ADC_1_CFG3_DEC_OCOR;
1398:Generated_Source\PSoC5/ADC_1.c ****             ADC_1_DEC_OCORM_REG   = ADC_1_CFG3_DEC_OCORM;
1399:Generated_Source\PSoC5/ADC_1.c ****             ADC_1_DEC_OCORH_REG   = ADC_1_CFG3_DEC_OCORH;
ARM GAS  C:\Users\karth\AppData\Local\Temp\ccX3KBuT.s 			page 26


1400:Generated_Source\PSoC5/ADC_1.c ****             ADC_1_DEC_COHER_REG   = ADC_1_CFG3_DEC_COHER;
1401:Generated_Source\PSoC5/ADC_1.c **** 
1402:Generated_Source\PSoC5/ADC_1.c ****             ADC_1_DSM_CR4_REG     = ADC_1_CFG3_DSM_CR4;
1403:Generated_Source\PSoC5/ADC_1.c ****             ADC_1_DSM_CR5_REG     = ADC_1_CFG3_DSM_CR5;
1404:Generated_Source\PSoC5/ADC_1.c ****             ADC_1_DSM_CR6_REG     = ADC_1_CFG3_DSM_CR6;
1405:Generated_Source\PSoC5/ADC_1.c ****             ADC_1_DSM_CR7_REG     = ADC_1_CFG3_DSM_CR7;
1406:Generated_Source\PSoC5/ADC_1.c ****             ADC_1_DSM_CR10_REG    = ADC_1_CFG3_DSM_CR10;
1407:Generated_Source\PSoC5/ADC_1.c ****             ADC_1_DSM_CR11_REG    = ADC_1_CFG3_DSM_CR11;
1408:Generated_Source\PSoC5/ADC_1.c ****             ADC_1_DSM_CR12_REG    = ADC_1_CFG3_DSM_CR12;
1409:Generated_Source\PSoC5/ADC_1.c ****             ADC_1_DSM_CR14_REG    = ADC_1_CFG3_DSM_CR14;
1410:Generated_Source\PSoC5/ADC_1.c ****             ADC_1_DSM_CR15_REG    = ADC_1_CFG3_DSM_CR15;
1411:Generated_Source\PSoC5/ADC_1.c ****             ADC_1_DSM_CR16_REG    = ADC_1_CFG3_DSM_CR16;
1412:Generated_Source\PSoC5/ADC_1.c ****             ADC_1_DSM_CR17_REG    = ADC_1_CFG3_DSM_CR17;
1413:Generated_Source\PSoC5/ADC_1.c ****             /* Set DSM_REF0_REG by disabling and enabling the PRESS circuit */
1414:Generated_Source\PSoC5/ADC_1.c ****             ADC_1_SetDSMRef0Reg(ADC_1_CFG3_DSM_REF0);
1415:Generated_Source\PSoC5/ADC_1.c ****             ADC_1_DSM_REF2_REG    = ADC_1_CFG3_DSM_REF2;
1416:Generated_Source\PSoC5/ADC_1.c ****             ADC_1_DSM_REF3_REG    = ADC_1_CFG3_DSM_REF3;
1417:Generated_Source\PSoC5/ADC_1.c **** 
1418:Generated_Source\PSoC5/ADC_1.c ****             ADC_1_DSM_BUF0_REG    = ADC_1_CFG3_DSM_BUF0;
1419:Generated_Source\PSoC5/ADC_1.c ****             ADC_1_DSM_BUF1_REG    = ADC_1_CFG3_DSM_BUF1;
1420:Generated_Source\PSoC5/ADC_1.c ****             ADC_1_DSM_BUF2_REG    = ADC_1_CFG3_DSM_BUF2;
1421:Generated_Source\PSoC5/ADC_1.c ****             ADC_1_DSM_BUF3_REG    = ADC_1_CFG3_DSM_BUF3;
1422:Generated_Source\PSoC5/ADC_1.c **** 
1423:Generated_Source\PSoC5/ADC_1.c ****             /* To select either Vssa or Vref to -ve input of DSM depending on
1424:Generated_Source\PSoC5/ADC_1.c ****             *  the input range selected.
1425:Generated_Source\PSoC5/ADC_1.c ****             */
1426:Generated_Source\PSoC5/ADC_1.c ****             #if(ADC_1_DEFAULT_INPUT_MODE)
1427:Generated_Source\PSoC5/ADC_1.c ****                 #if (ADC_1_CFG3_INPUT_RANGE == ADC_1_IR_VSSA_TO_2VREF)
1428:Generated_Source\PSoC5/ADC_1.c ****                     ADC_1_AMux_Select(1u);
1429:Generated_Source\PSoC5/ADC_1.c ****                 #else
1430:Generated_Source\PSoC5/ADC_1.c ****                     ADC_1_AMux_Select(0u);
1431:Generated_Source\PSoC5/ADC_1.c ****                 #endif /* ADC_1_IR_VSSA_TO_2VREF) */
1432:Generated_Source\PSoC5/ADC_1.c ****             #endif /* ADC_1_DEFAULT_INPUT_MODE */
1433:Generated_Source\PSoC5/ADC_1.c **** 
1434:Generated_Source\PSoC5/ADC_1.c ****             /* Set the Conversion stop if resolution is above 16 bit and
1435:Generated_Source\PSoC5/ADC_1.c ****                conversion  mode is Single sample */
1436:Generated_Source\PSoC5/ADC_1.c ****             #if(ADC_1_CFG3_RESOLUTION > 16 && \
1437:Generated_Source\PSoC5/ADC_1.c ****                 ADC_1_CFG3_CONV_MODE == ADC_1_MODE_SINGLE_SAMPLE)
1438:Generated_Source\PSoC5/ADC_1.c ****                 ADC_1_stopConversion = 1u;
1439:Generated_Source\PSoC5/ADC_1.c ****             #endif /* Single sample with resolution above 16 bits */
1440:Generated_Source\PSoC5/ADC_1.c **** 
1441:Generated_Source\PSoC5/ADC_1.c ****             ADC_1_CountsPerVolt = (int32)ADC_1_CFG3_COUNTS_PER_VOLT;
1442:Generated_Source\PSoC5/ADC_1.c **** 
1443:Generated_Source\PSoC5/ADC_1.c ****             ADC_1_Ext_CP_Clk_SetDividerRegister(ADC_1_CFG3_CP_CLK_DIVIDER, 1u);
1444:Generated_Source\PSoC5/ADC_1.c **** 
1445:Generated_Source\PSoC5/ADC_1.c ****             /* This is only valid if there is an internal clock */
1446:Generated_Source\PSoC5/ADC_1.c ****             #if(ADC_1_DEFAULT_INTERNAL_CLK)
1447:Generated_Source\PSoC5/ADC_1.c ****                 ADC_1_theACLK_SetDividerRegister(ADC_1_CFG3_ADC_CLK_DIVIDER, 1u);
1448:Generated_Source\PSoC5/ADC_1.c ****             #endif /* ADC_1_DEFAULT_INTERNAL_CLK */
1449:Generated_Source\PSoC5/ADC_1.c **** 
1450:Generated_Source\PSoC5/ADC_1.c ****             #if(ADC_1_IRQ_REMOVE == 0u)
1451:Generated_Source\PSoC5/ADC_1.c ****                 /* Set interrupt vector */
1452:Generated_Source\PSoC5/ADC_1.c ****                 (void)CyIntSetVector(ADC_1_INTC_NUMBER, &ADC_1_ISR3);
1453:Generated_Source\PSoC5/ADC_1.c ****             #endif   /* End ADC_1_IRQ_REMOVE */
1454:Generated_Source\PSoC5/ADC_1.c ****         }
1455:Generated_Source\PSoC5/ADC_1.c ****     #endif /* ADC_1_DEFAULT_NUM_CONFIGS > 2 */
1456:Generated_Source\PSoC5/ADC_1.c **** 
ARM GAS  C:\Users\karth\AppData\Local\Temp\ccX3KBuT.s 			page 27


1457:Generated_Source\PSoC5/ADC_1.c ****     #if(ADC_1_DEFAULT_NUM_CONFIGS > 3)
1458:Generated_Source\PSoC5/ADC_1.c ****         if (config == 4u)
1459:Generated_Source\PSoC5/ADC_1.c ****         {
1460:Generated_Source\PSoC5/ADC_1.c ****             /* Fourth Config */
1461:Generated_Source\PSoC5/ADC_1.c ****             ADC_1_DEC_CR_REG      = ADC_1_CFG4_DEC_CR;
1462:Generated_Source\PSoC5/ADC_1.c ****             ADC_1_DEC_SHIFT1_REG  = ADC_1_CFG4_DEC_SHIFT1;
1463:Generated_Source\PSoC5/ADC_1.c ****             ADC_1_DEC_SHIFT2_REG  = ADC_1_CFG4_DEC_SHIFT2;
1464:Generated_Source\PSoC5/ADC_1.c ****             ADC_1_DEC_DR2_REG     = ADC_1_CFG4_DEC_DR2;
1465:Generated_Source\PSoC5/ADC_1.c ****             ADC_1_DEC_DR2H_REG    = ADC_1_CFG4_DEC_DR2H;
1466:Generated_Source\PSoC5/ADC_1.c ****             ADC_1_DEC_DR1_REG     = ADC_1_CFG4_DEC_DR1;
1467:Generated_Source\PSoC5/ADC_1.c ****             ADC_1_DEC_OCOR_REG    = ADC_1_CFG4_DEC_OCOR;
1468:Generated_Source\PSoC5/ADC_1.c ****             ADC_1_DEC_OCORM_REG   = ADC_1_CFG4_DEC_OCORM;
1469:Generated_Source\PSoC5/ADC_1.c ****             ADC_1_DEC_OCORH_REG   = ADC_1_CFG4_DEC_OCORH;
1470:Generated_Source\PSoC5/ADC_1.c ****             ADC_1_DEC_COHER_REG   = ADC_1_CFG4_DEC_COHER;
1471:Generated_Source\PSoC5/ADC_1.c **** 
1472:Generated_Source\PSoC5/ADC_1.c ****             ADC_1_DSM_CR4_REG     = ADC_1_CFG4_DSM_CR4;
1473:Generated_Source\PSoC5/ADC_1.c ****             ADC_1_DSM_CR5_REG     = ADC_1_CFG4_DSM_CR5;
1474:Generated_Source\PSoC5/ADC_1.c ****             ADC_1_DSM_CR6_REG     = ADC_1_CFG4_DSM_CR6;
1475:Generated_Source\PSoC5/ADC_1.c ****             ADC_1_DSM_CR7_REG     = ADC_1_CFG4_DSM_CR7;
1476:Generated_Source\PSoC5/ADC_1.c ****             ADC_1_DSM_CR10_REG    = ADC_1_CFG4_DSM_CR10;
1477:Generated_Source\PSoC5/ADC_1.c ****             ADC_1_DSM_CR11_REG    = ADC_1_CFG4_DSM_CR11;
1478:Generated_Source\PSoC5/ADC_1.c ****             ADC_1_DSM_CR12_REG    = ADC_1_CFG4_DSM_CR12;
1479:Generated_Source\PSoC5/ADC_1.c ****             ADC_1_DSM_CR14_REG    = ADC_1_CFG4_DSM_CR14;
1480:Generated_Source\PSoC5/ADC_1.c ****             ADC_1_DSM_CR15_REG    = ADC_1_CFG4_DSM_CR15;
1481:Generated_Source\PSoC5/ADC_1.c ****             ADC_1_DSM_CR16_REG    = ADC_1_CFG4_DSM_CR16;
1482:Generated_Source\PSoC5/ADC_1.c ****             ADC_1_DSM_CR17_REG    = ADC_1_CFG4_DSM_CR17;
1483:Generated_Source\PSoC5/ADC_1.c ****             /* Set DSM_REF0_REG by disabling and enabling the PRESS circuit */
1484:Generated_Source\PSoC5/ADC_1.c ****             ADC_1_SetDSMRef0Reg(ADC_1_CFG4_DSM_REF0);
1485:Generated_Source\PSoC5/ADC_1.c ****             ADC_1_DSM_REF2_REG    = ADC_1_CFG4_DSM_REF2;
1486:Generated_Source\PSoC5/ADC_1.c ****             ADC_1_DSM_REF3_REG    = ADC_1_CFG4_DSM_REF3;
1487:Generated_Source\PSoC5/ADC_1.c **** 
1488:Generated_Source\PSoC5/ADC_1.c ****             ADC_1_DSM_BUF0_REG    = ADC_1_CFG4_DSM_BUF0;
1489:Generated_Source\PSoC5/ADC_1.c ****             ADC_1_DSM_BUF1_REG    = ADC_1_CFG4_DSM_BUF1;
1490:Generated_Source\PSoC5/ADC_1.c ****             ADC_1_DSM_BUF2_REG    = ADC_1_CFG4_DSM_BUF2;
1491:Generated_Source\PSoC5/ADC_1.c ****             ADC_1_DSM_BUF3_REG    = ADC_1_CFG4_DSM_BUF3;
1492:Generated_Source\PSoC5/ADC_1.c **** 
1493:Generated_Source\PSoC5/ADC_1.c ****             /* To select either Vssa or Vref to -ve input of DSM depending on
1494:Generated_Source\PSoC5/ADC_1.c ****             *  the input range selected.
1495:Generated_Source\PSoC5/ADC_1.c ****             */
1496:Generated_Source\PSoC5/ADC_1.c ****             #if(ADC_1_DEFAULT_INPUT_MODE)
1497:Generated_Source\PSoC5/ADC_1.c ****                 #if (ADC_1_CFG4_INPUT_RANGE == ADC_1_IR_VSSA_TO_2VREF)
1498:Generated_Source\PSoC5/ADC_1.c ****                     ADC_1_AMux_Select(1u);
1499:Generated_Source\PSoC5/ADC_1.c ****                 #else
1500:Generated_Source\PSoC5/ADC_1.c ****                     ADC_1_AMux_Select(0u);
1501:Generated_Source\PSoC5/ADC_1.c ****                 #endif /* ADC_1_IR_VSSA_TO_2VREF) */
1502:Generated_Source\PSoC5/ADC_1.c ****             #endif /* ADC_1_DEFAULT_INPUT_MODE */
1503:Generated_Source\PSoC5/ADC_1.c **** 
1504:Generated_Source\PSoC5/ADC_1.c ****             /* Set the Conversion stop if resolution is above 16 bit and
1505:Generated_Source\PSoC5/ADC_1.c ****                conversion mode is Single sample */
1506:Generated_Source\PSoC5/ADC_1.c ****             #if(ADC_1_CFG4_RESOLUTION > 16 && \
1507:Generated_Source\PSoC5/ADC_1.c ****                 ADC_1_CFG4_CONV_MODE == ADC_1_MODE_SINGLE_SAMPLE)
1508:Generated_Source\PSoC5/ADC_1.c ****                 ADC_1_stopConversion = 1u;
1509:Generated_Source\PSoC5/ADC_1.c ****             #endif /* Single sample with resolution above 16 bits */
1510:Generated_Source\PSoC5/ADC_1.c **** 
1511:Generated_Source\PSoC5/ADC_1.c ****             ADC_1_CountsPerVolt = (int32)ADC_1_CFG4_COUNTS_PER_VOLT;
1512:Generated_Source\PSoC5/ADC_1.c **** 
1513:Generated_Source\PSoC5/ADC_1.c ****             ADC_1_Ext_CP_Clk_SetDividerRegister(ADC_1_CFG4_CP_CLK_DIVIDER, 1u);
ARM GAS  C:\Users\karth\AppData\Local\Temp\ccX3KBuT.s 			page 28


1514:Generated_Source\PSoC5/ADC_1.c **** 
1515:Generated_Source\PSoC5/ADC_1.c ****             /* This is only valid if there is an internal clock */
1516:Generated_Source\PSoC5/ADC_1.c ****             #if(ADC_1_DEFAULT_INTERNAL_CLK)
1517:Generated_Source\PSoC5/ADC_1.c ****                 ADC_1_theACLK_SetDividerRegister(ADC_1_CFG4_ADC_CLK_DIVIDER, 1u);
1518:Generated_Source\PSoC5/ADC_1.c ****             #endif /* ADC_1_DEFAULT_INTERNAL_CLK */
1519:Generated_Source\PSoC5/ADC_1.c **** 
1520:Generated_Source\PSoC5/ADC_1.c ****             #if(ADC_1_IRQ_REMOVE == 0u)
1521:Generated_Source\PSoC5/ADC_1.c ****                 /* Set interrupt vector */
1522:Generated_Source\PSoC5/ADC_1.c ****                 (void)CyIntSetVector(ADC_1_INTC_NUMBER, &ADC_1_ISR4);
1523:Generated_Source\PSoC5/ADC_1.c ****             #endif   /* End ADC_1_IRQ_REMOVE */
1524:Generated_Source\PSoC5/ADC_1.c ****         }
1525:Generated_Source\PSoC5/ADC_1.c ****     #endif /* ADC_1_DEFAULT_NUM_CONFIGS > 3 */
1526:Generated_Source\PSoC5/ADC_1.c **** }
1527:Generated_Source\PSoC5/ADC_1.c **** 
1528:Generated_Source\PSoC5/ADC_1.c **** 
1529:Generated_Source\PSoC5/ADC_1.c **** /*******************************************************************************
1530:Generated_Source\PSoC5/ADC_1.c **** * Function Name: ADC_1_SelectCofiguration
1531:Generated_Source\PSoC5/ADC_1.c **** ********************************************************************************
1532:Generated_Source\PSoC5/ADC_1.c **** *
1533:Generated_Source\PSoC5/ADC_1.c **** * Summary:
1534:Generated_Source\PSoC5/ADC_1.c **** *  Sets one of up to four ADC configurations. Before setting the new
1535:Generated_Source\PSoC5/ADC_1.c **** *  configuration, the ADC is stopped and powered down. After setting
1536:Generated_Source\PSoC5/ADC_1.c **** *  the new configuration, the ADC can be powered and conversion
1537:Generated_Source\PSoC5/ADC_1.c **** *  can be restarted depending up on the value of second parameter
1538:Generated_Source\PSoC5/ADC_1.c **** *  restart. If the value of this parameter is 1, then ADC will be
1539:Generated_Source\PSoC5/ADC_1.c **** *  restarted. If this value is zero, then user must call ADC_1_Start
1540:Generated_Source\PSoC5/ADC_1.c **** *  and ADC_1_StartConvert() to restart the conversion.
1541:Generated_Source\PSoC5/ADC_1.c **** *
1542:Generated_Source\PSoC5/ADC_1.c **** * Parameters:
1543:Generated_Source\PSoC5/ADC_1.c **** *  config:  configuration user wants to select.
1544:Generated_Source\PSoC5/ADC_1.c **** *           Valid range: 1..4
1545:Generated_Source\PSoC5/ADC_1.c **** *  restart:  Restart option. 1 means start the ADC and restart the conversion.
1546:Generated_Source\PSoC5/ADC_1.c **** *                            0 means do not start the ADC and conversion.
1547:Generated_Source\PSoC5/ADC_1.c **** *
1548:Generated_Source\PSoC5/ADC_1.c **** * Return:
1549:Generated_Source\PSoC5/ADC_1.c **** *  None
1550:Generated_Source\PSoC5/ADC_1.c **** *
1551:Generated_Source\PSoC5/ADC_1.c **** *******************************************************************************/
1552:Generated_Source\PSoC5/ADC_1.c **** void ADC_1_SelectConfiguration(uint8 config, uint8 restart)
1553:Generated_Source\PSoC5/ADC_1.c ****                                               
1554:Generated_Source\PSoC5/ADC_1.c **** {
1555:Generated_Source\PSoC5/ADC_1.c ****     /* Check whether the configuration number is valid or not */
1556:Generated_Source\PSoC5/ADC_1.c ****     if((config > 0u) && (config <= ADC_1_DEFAULT_NUM_CONFIGS))
1557:Generated_Source\PSoC5/ADC_1.c ****     {
1558:Generated_Source\PSoC5/ADC_1.c ****         /* Set the flag to ensure Start() API doesn't override the 
1559:Generated_Source\PSoC5/ADC_1.c **** 		*  selected configuration
1560:Generated_Source\PSoC5/ADC_1.c **** 		*/
1561:Generated_Source\PSoC5/ADC_1.c ****         if(ADC_1_initVar == 0u)
1562:Generated_Source\PSoC5/ADC_1.c ****         {
1563:Generated_Source\PSoC5/ADC_1.c ****             ADC_1_started = 1u;
1564:Generated_Source\PSoC5/ADC_1.c ****         }
1565:Generated_Source\PSoC5/ADC_1.c **** 
1566:Generated_Source\PSoC5/ADC_1.c ****         /* Update the config flag */
1567:Generated_Source\PSoC5/ADC_1.c ****         ADC_1_Config = config;
1568:Generated_Source\PSoC5/ADC_1.c **** 
1569:Generated_Source\PSoC5/ADC_1.c ****         /* Stop the ADC  */
1570:Generated_Source\PSoC5/ADC_1.c ****         ADC_1_Stop();
ARM GAS  C:\Users\karth\AppData\Local\Temp\ccX3KBuT.s 			page 29


1571:Generated_Source\PSoC5/ADC_1.c **** 
1572:Generated_Source\PSoC5/ADC_1.c ****         /* Set the  ADC registers based on the configuration */
1573:Generated_Source\PSoC5/ADC_1.c ****         ADC_1_InitConfig(config);
1574:Generated_Source\PSoC5/ADC_1.c **** 
1575:Generated_Source\PSoC5/ADC_1.c ****         /* Compensate the gain */
1576:Generated_Source\PSoC5/ADC_1.c ****         ADC_1_DEC_GVAL_REG = ADC_1_gcor[config - 1u].gval;
1577:Generated_Source\PSoC5/ADC_1.c ****         CY_SET_REG16(ADC_1_DEC_GCOR_16B_PTR, ADC_1_gcor[config - 1u].gcor);
1578:Generated_Source\PSoC5/ADC_1.c **** 
1579:Generated_Source\PSoC5/ADC_1.c ****         if(restart == 1u)
1580:Generated_Source\PSoC5/ADC_1.c ****         {
1581:Generated_Source\PSoC5/ADC_1.c ****             /* Restart the ADC */
1582:Generated_Source\PSoC5/ADC_1.c ****             ADC_1_Start();
1583:Generated_Source\PSoC5/ADC_1.c **** 
1584:Generated_Source\PSoC5/ADC_1.c ****             /* Restart the ADC conversion */
1585:Generated_Source\PSoC5/ADC_1.c ****             ADC_1_StartConvert();
1586:Generated_Source\PSoC5/ADC_1.c ****         }
1587:Generated_Source\PSoC5/ADC_1.c ****     }
1588:Generated_Source\PSoC5/ADC_1.c ****     else
1589:Generated_Source\PSoC5/ADC_1.c ****     {
1590:Generated_Source\PSoC5/ADC_1.c ****         /* Halt CPU in debug mode if config is out of valid range */
1591:Generated_Source\PSoC5/ADC_1.c ****         CYASSERT(0u != 0u);
1592:Generated_Source\PSoC5/ADC_1.c ****     }
1593:Generated_Source\PSoC5/ADC_1.c **** }
1594:Generated_Source\PSoC5/ADC_1.c **** 
1595:Generated_Source\PSoC5/ADC_1.c **** 
1596:Generated_Source\PSoC5/ADC_1.c **** /*******************************************************************************
1597:Generated_Source\PSoC5/ADC_1.c **** * Function Name: ADC_1_GainCompensation
1598:Generated_Source\PSoC5/ADC_1.c **** ********************************************************************************
1599:Generated_Source\PSoC5/ADC_1.c **** *
1600:Generated_Source\PSoC5/ADC_1.c **** * Summary:
1601:Generated_Source\PSoC5/ADC_1.c **** *  This API calculates the trim value and then store this to gcor structure.
1602:Generated_Source\PSoC5/ADC_1.c **** *
1603:Generated_Source\PSoC5/ADC_1.c **** * Parameters:
1604:Generated_Source\PSoC5/ADC_1.c **** *  inputRange:  input range for which trim value is to be calculated.
1605:Generated_Source\PSoC5/ADC_1.c **** *  IdealDecGain:  Ideal Decimator gain for the selected resolution and
1606:Generated_Source\PSoC5/ADC_1.c **** *                 conversion  mode.
1607:Generated_Source\PSoC5/ADC_1.c **** *  IdealOddDecGain:  Ideal odd decimation gain for the selected resolution and
1608:Generated_Source\PSoC5/ADC_1.c ****                      conversion mode.
1609:Generated_Source\PSoC5/ADC_1.c **** *  resolution:  Resolution to select the proper flash location for trim value.
1610:Generated_Source\PSoC5/ADC_1.c **** *  config:      Specifies the configuration number
1611:Generated_Source\PSoC5/ADC_1.c **** *               Valid range: 1..4
1612:Generated_Source\PSoC5/ADC_1.c **** *
1613:Generated_Source\PSoC5/ADC_1.c **** * Return:
1614:Generated_Source\PSoC5/ADC_1.c **** *  None
1615:Generated_Source\PSoC5/ADC_1.c **** *
1616:Generated_Source\PSoC5/ADC_1.c **** *******************************************************************************/
1617:Generated_Source\PSoC5/ADC_1.c **** static void ADC_1_GainCompensation(uint8 inputRange, uint16 idealDecGain, uint16 idealOddDecGain,
1618:Generated_Source\PSoC5/ADC_1.c ****                               uint8 resolution, uint8 config) 
1619:Generated_Source\PSoC5/ADC_1.c **** {
  27              		.loc 1 1619 0
  28              		.cfi_startproc
  29              		@ args = 4, pretend = 0, frame = 0
  30              		@ frame_needed = 0, uses_anonymous_args = 0
  31              	.LVL0:
  32 0000 10B5     		push	{r4, lr}
  33              		.cfi_def_cfa_offset 8
  34              		.cfi_offset 4, -8
ARM GAS  C:\Users\karth\AppData\Local\Temp\ccX3KBuT.s 			page 30


  35              		.cfi_offset 14, -4
  36 0002 9DF80840 		ldrb	r4, [sp, #8]	@ zero_extendqisi2
1620:Generated_Source\PSoC5/ADC_1.c ****     int8 flash;
1621:Generated_Source\PSoC5/ADC_1.c **** 	int32 normalised;
1622:Generated_Source\PSoC5/ADC_1.c **** 	uint16 gcorValue;
1623:Generated_Source\PSoC5/ADC_1.c ****     uint32 gcorTmp;
1624:Generated_Source\PSoC5/ADC_1.c **** 
1625:Generated_Source\PSoC5/ADC_1.c ****     if((config > 0u) && (config <= ADC_1_DEFAULT_NUM_CONFIGS))
  37              		.loc 1 1625 0
  38 0006 012C     		cmp	r4, #1
  39 0008 51D1     		bne	.L2
1626:Generated_Source\PSoC5/ADC_1.c ****     {
1627:Generated_Source\PSoC5/ADC_1.c ****         switch(inputRange)
  40              		.loc 1 1627 0
  41 000a 0138     		subs	r0, r0, #1
  42              	.LVL1:
  43 000c 0928     		cmp	r0, #9
  44 000e 2ED8     		bhi	.L16
  45 0010 DFE800F0 		tbb	[pc, r0]
  46              	.L5:
  47 0014 05       		.byte	(.L4-.L5)/2
  48 0015 2D       		.byte	(.L16-.L5)/2
  49 0016 2D       		.byte	(.L16-.L5)/2
  50 0017 05       		.byte	(.L4-.L5)/2
  51 0018 2D       		.byte	(.L16-.L5)/2
  52 0019 2D       		.byte	(.L16-.L5)/2
  53 001a 0F       		.byte	(.L6-.L5)/2
  54 001b 19       		.byte	(.L7-.L5)/2
  55 001c 2D       		.byte	(.L16-.L5)/2
  56 001d 23       		.byte	(.L8-.L5)/2
  57              		.p2align 1
  58              	.L4:
1628:Generated_Source\PSoC5/ADC_1.c ****         {
1629:Generated_Source\PSoC5/ADC_1.c ****             case ADC_1_IR_VNEG_VREF_DIFF:
1630:Generated_Source\PSoC5/ADC_1.c ****             case ADC_1_IR_VSSA_TO_2VREF:
1631:Generated_Source\PSoC5/ADC_1.c ****                 /* Normalize the flash Value */
1632:Generated_Source\PSoC5/ADC_1.c ****                 if(resolution > 15u)
  59              		.loc 1 1632 0
  60 001e 0F2B     		cmp	r3, #15
  61 0020 03D9     		bls	.L9
1633:Generated_Source\PSoC5/ADC_1.c ****                 {
1634:Generated_Source\PSoC5/ADC_1.c ****                     flash = ADC_1_DEC_TRIM_VREF_DIFF_16_20;
  62              		.loc 1 1634 0
  63 0022 2548     		ldr	r0, .L18
  64 0024 0078     		ldrb	r0, [r0]	@ zero_extendqisi2
  65 0026 40B2     		sxtb	r0, r0
  66              	.LVL2:
  67 0028 22E0     		b	.L3
  68              	.LVL3:
  69              	.L9:
1635:Generated_Source\PSoC5/ADC_1.c ****                 }
1636:Generated_Source\PSoC5/ADC_1.c ****                 else
1637:Generated_Source\PSoC5/ADC_1.c ****                 {
1638:Generated_Source\PSoC5/ADC_1.c ****                     flash = ADC_1_DEC_TRIM_VREF_DIFF_8_15;
  70              		.loc 1 1638 0
  71 002a 2448     		ldr	r0, .L18+4
  72 002c 0078     		ldrb	r0, [r0]	@ zero_extendqisi2
ARM GAS  C:\Users\karth\AppData\Local\Temp\ccX3KBuT.s 			page 31


  73 002e 40B2     		sxtb	r0, r0
  74              	.LVL4:
  75 0030 1EE0     		b	.L3
  76              	.LVL5:
  77              	.L6:
1639:Generated_Source\PSoC5/ADC_1.c ****                 }
1640:Generated_Source\PSoC5/ADC_1.c ****                 break;
1641:Generated_Source\PSoC5/ADC_1.c **** 
1642:Generated_Source\PSoC5/ADC_1.c ****             case ADC_1_IR_VNEG_VREF_2_DIFF:
1643:Generated_Source\PSoC5/ADC_1.c ****                 /* Normalize the flash Value */
1644:Generated_Source\PSoC5/ADC_1.c ****                 if(resolution > 15u)
  78              		.loc 1 1644 0
  79 0032 0F2B     		cmp	r3, #15
  80 0034 03D9     		bls	.L10
1645:Generated_Source\PSoC5/ADC_1.c ****                 {
1646:Generated_Source\PSoC5/ADC_1.c ****                     flash = ADC_1_DEC_TRIM_VREF_2_DIFF_16_20;
  81              		.loc 1 1646 0
  82 0036 2248     		ldr	r0, .L18+8
  83 0038 0078     		ldrb	r0, [r0]	@ zero_extendqisi2
  84 003a 40B2     		sxtb	r0, r0
  85              	.LVL6:
  86 003c 18E0     		b	.L3
  87              	.LVL7:
  88              	.L10:
1647:Generated_Source\PSoC5/ADC_1.c ****                 }
1648:Generated_Source\PSoC5/ADC_1.c ****                 else
1649:Generated_Source\PSoC5/ADC_1.c ****                 {
1650:Generated_Source\PSoC5/ADC_1.c ****                     flash = ADC_1_DEC_TRIM_VREF_2_DIFF_8_15;
  89              		.loc 1 1650 0
  90 003e 2148     		ldr	r0, .L18+12
  91 0040 0078     		ldrb	r0, [r0]	@ zero_extendqisi2
  92 0042 40B2     		sxtb	r0, r0
  93              	.LVL8:
  94 0044 14E0     		b	.L3
  95              	.LVL9:
  96              	.L7:
1651:Generated_Source\PSoC5/ADC_1.c ****                 }
1652:Generated_Source\PSoC5/ADC_1.c ****                 break;
1653:Generated_Source\PSoC5/ADC_1.c **** 
1654:Generated_Source\PSoC5/ADC_1.c ****             case ADC_1_IR_VNEG_VREF_4_DIFF:
1655:Generated_Source\PSoC5/ADC_1.c ****                 /* Normalize the flash Value */
1656:Generated_Source\PSoC5/ADC_1.c ****                 if(resolution > 15u)
  97              		.loc 1 1656 0
  98 0046 0F2B     		cmp	r3, #15
  99 0048 03D9     		bls	.L11
1657:Generated_Source\PSoC5/ADC_1.c ****                 {
1658:Generated_Source\PSoC5/ADC_1.c ****                     flash = ADC_1_DEC_TRIM_VREF_4_DIFF_16_20;
 100              		.loc 1 1658 0
 101 004a 1F48     		ldr	r0, .L18+16
 102 004c 0078     		ldrb	r0, [r0]	@ zero_extendqisi2
 103 004e 40B2     		sxtb	r0, r0
 104              	.LVL10:
 105 0050 0EE0     		b	.L3
 106              	.LVL11:
 107              	.L11:
1659:Generated_Source\PSoC5/ADC_1.c ****                 }
1660:Generated_Source\PSoC5/ADC_1.c ****                 else
ARM GAS  C:\Users\karth\AppData\Local\Temp\ccX3KBuT.s 			page 32


1661:Generated_Source\PSoC5/ADC_1.c ****                 {
1662:Generated_Source\PSoC5/ADC_1.c ****                     flash = ADC_1_DEC_TRIM_VREF_4_DIFF_8_15;
 108              		.loc 1 1662 0
 109 0052 1E48     		ldr	r0, .L18+20
 110 0054 0078     		ldrb	r0, [r0]	@ zero_extendqisi2
 111 0056 40B2     		sxtb	r0, r0
 112              	.LVL12:
 113 0058 0AE0     		b	.L3
 114              	.LVL13:
 115              	.L8:
1663:Generated_Source\PSoC5/ADC_1.c ****                 }
1664:Generated_Source\PSoC5/ADC_1.c ****                 break;
1665:Generated_Source\PSoC5/ADC_1.c **** 
1666:Generated_Source\PSoC5/ADC_1.c ****             case ADC_1_IR_VNEG_VREF_16_DIFF:
1667:Generated_Source\PSoC5/ADC_1.c ****                 /* Normalize the flash Value */
1668:Generated_Source\PSoC5/ADC_1.c ****                 if(resolution > 15u)
 116              		.loc 1 1668 0
 117 005a 0F2B     		cmp	r3, #15
 118 005c 03D9     		bls	.L12
1669:Generated_Source\PSoC5/ADC_1.c ****                 {
1670:Generated_Source\PSoC5/ADC_1.c ****                     flash = ADC_1_DEC_TRIM_VREF_16_DIFF_16_20;
 119              		.loc 1 1670 0
 120 005e 1C48     		ldr	r0, .L18+24
 121 0060 0078     		ldrb	r0, [r0]	@ zero_extendqisi2
 122 0062 40B2     		sxtb	r0, r0
 123              	.LVL14:
 124 0064 04E0     		b	.L3
 125              	.LVL15:
 126              	.L12:
1671:Generated_Source\PSoC5/ADC_1.c ****                 }
1672:Generated_Source\PSoC5/ADC_1.c ****                 else
1673:Generated_Source\PSoC5/ADC_1.c ****                 {
1674:Generated_Source\PSoC5/ADC_1.c ****                     flash = ADC_1_DEC_TRIM_VREF_16_DIFF_8_15;
 127              		.loc 1 1674 0
 128 0066 1B48     		ldr	r0, .L18+28
 129 0068 0078     		ldrb	r0, [r0]	@ zero_extendqisi2
 130 006a 40B2     		sxtb	r0, r0
 131              	.LVL16:
 132 006c 00E0     		b	.L3
 133              	.LVL17:
 134              	.L16:
1675:Generated_Source\PSoC5/ADC_1.c ****                 }
1676:Generated_Source\PSoC5/ADC_1.c ****                 break;
1677:Generated_Source\PSoC5/ADC_1.c **** 
1678:Generated_Source\PSoC5/ADC_1.c ****             default:
1679:Generated_Source\PSoC5/ADC_1.c ****                 flash = 0;
 135              		.loc 1 1679 0
 136 006e 0020     		movs	r0, #0
 137              	.L3:
 138              	.LVL18:
1680:Generated_Source\PSoC5/ADC_1.c ****                 break;
1681:Generated_Source\PSoC5/ADC_1.c ****         }
1682:Generated_Source\PSoC5/ADC_1.c **** 
1683:Generated_Source\PSoC5/ADC_1.c ****         /* Add two values */
1684:Generated_Source\PSoC5/ADC_1.c **** 		normalised = (int32)idealDecGain + ((int32)flash * 32);
 139              		.loc 1 1684 0
 140 0070 01EB4011 		add	r1, r1, r0, lsl #5
ARM GAS  C:\Users\karth\AppData\Local\Temp\ccX3KBuT.s 			page 33


 141              	.LVL19:
1685:Generated_Source\PSoC5/ADC_1.c ****         gcorTmp = (uint32)normalised * (uint32)idealOddDecGain;
 142              		.loc 1 1685 0
 143 0074 01FB02F1 		mul	r1, r1, r2
 144              	.LVL20:
1686:Generated_Source\PSoC5/ADC_1.c ****         gcorValue = (uint16)(gcorTmp / ADC_1_IDEAL_GAIN_CONST);
 145              		.loc 1 1686 0
 146 0078 C90B     		lsrs	r1, r1, #15
 147              	.LVL21:
 148 007a 8AB2     		uxth	r2, r1
 149              	.LVL22:
1687:Generated_Source\PSoC5/ADC_1.c **** 
1688:Generated_Source\PSoC5/ADC_1.c ****         if (resolution < (ADC_1_MAX_GVAL - 1u))
 150              		.loc 1 1688 0
 151 007c 0D2B     		cmp	r3, #13
 152 007e 0BD8     		bhi	.L13
1689:Generated_Source\PSoC5/ADC_1.c ****         {
1690:Generated_Source\PSoC5/ADC_1.c ****             gcorValue = (gcorValue >> (ADC_1_MAX_GVAL - (resolution + 1u)));
 153              		.loc 1 1690 0
 154 0080 C3F10E02 		rsb	r2, r3, #14
 155              	.LVL23:
 156 0084 89B2     		uxth	r1, r1
 157 0086 1141     		asrs	r1, r1, r2
 158              	.LVL24:
 159 0088 8AB2     		uxth	r2, r1
 160              	.LVL25:
1691:Generated_Source\PSoC5/ADC_1.c ****             ADC_1_gcor[config - 1u].gval = (resolution + 1u);
 161              		.loc 1 1691 0
 162 008a 611E     		subs	r1, r4, #1
 163 008c 1248     		ldr	r0, .L18+32
 164              	.LVL26:
 165 008e 00EB8101 		add	r1, r0, r1, lsl #2
 166 0092 0133     		adds	r3, r3, #1
 167              	.LVL27:
 168 0094 8B70     		strb	r3, [r1, #2]
 169 0096 05E0     		b	.L14
 170              	.LVL28:
 171              	.L13:
1692:Generated_Source\PSoC5/ADC_1.c ****         }
1693:Generated_Source\PSoC5/ADC_1.c ****         else
1694:Generated_Source\PSoC5/ADC_1.c ****         {
1695:Generated_Source\PSoC5/ADC_1.c ****             /* Use all 16 bits */
1696:Generated_Source\PSoC5/ADC_1.c ****             ADC_1_gcor[config - 1u].gval = ADC_1_MAX_GVAL;
 172              		.loc 1 1696 0
 173 0098 631E     		subs	r3, r4, #1
 174              	.LVL29:
 175 009a 0F49     		ldr	r1, .L18+32
 176 009c 01EB8303 		add	r3, r1, r3, lsl #2
 177 00a0 0F21     		movs	r1, #15
 178 00a2 9970     		strb	r1, [r3, #2]
 179              	.LVL30:
 180              	.L14:
1697:Generated_Source\PSoC5/ADC_1.c ****         }
1698:Generated_Source\PSoC5/ADC_1.c **** 
1699:Generated_Source\PSoC5/ADC_1.c ****         /* Save the gain correction register value */
1700:Generated_Source\PSoC5/ADC_1.c ****         ADC_1_gcor[config - 1u].gcor = gcorValue;
 181              		.loc 1 1700 0
ARM GAS  C:\Users\karth\AppData\Local\Temp\ccX3KBuT.s 			page 34


 182 00a4 013C     		subs	r4, r4, #1
 183 00a6 0C4B     		ldr	r3, .L18+32
 184 00a8 23F82420 		strh	r2, [r3, r4, lsl #2]	@ movhi
 185 00ac 10BD     		pop	{r4, pc}
 186              	.LVL31:
 187              	.L2:
1701:Generated_Source\PSoC5/ADC_1.c ****     }
1702:Generated_Source\PSoC5/ADC_1.c ****     else
1703:Generated_Source\PSoC5/ADC_1.c ****     {
1704:Generated_Source\PSoC5/ADC_1.c ****         /* Halt CPU in debug mode if config is out of valid range */
1705:Generated_Source\PSoC5/ADC_1.c ****         CYASSERT(0u != 0u);
 188              		.loc 1 1705 0 discriminator 1
 189 00ae 0020     		movs	r0, #0
 190              	.LVL32:
 191 00b0 FFF7FEFF 		bl	CyHalt
 192              	.LVL33:
 193 00b4 10BD     		pop	{r4, pc}
 194              	.LVL34:
 195              	.L19:
 196 00b6 00BF     		.align	2
 197              	.L18:
 198 00b8 18010049 		.word	1224737048
 199 00bc 1C010049 		.word	1224737052
 200 00c0 19010049 		.word	1224737049
 201 00c4 1D010049 		.word	1224737053
 202 00c8 1A010049 		.word	1224737050
 203 00cc 1E010049 		.word	1224737054
 204 00d0 1B010049 		.word	1224737051
 205 00d4 1F010049 		.word	1224737055
 206 00d8 00000000 		.word	.LANCHOR0
 207              		.cfi_endproc
 208              	.LFE21:
 209              		.size	ADC_1_GainCompensation, .-ADC_1_GainCompensation
 210              		.section	.text.ADC_1_SetDSMRef0Reg,"ax",%progbits
 211              		.align	2
 212              		.thumb
 213              		.thumb_func
 214              		.type	ADC_1_SetDSMRef0Reg, %function
 215              	ADC_1_SetDSMRef0Reg:
 216              	.LFB22:
1706:Generated_Source\PSoC5/ADC_1.c ****     }
1707:Generated_Source\PSoC5/ADC_1.c **** }
1708:Generated_Source\PSoC5/ADC_1.c **** 
1709:Generated_Source\PSoC5/ADC_1.c **** 
1710:Generated_Source\PSoC5/ADC_1.c **** /******************************************************************************
1711:Generated_Source\PSoC5/ADC_1.c **** * Function Name: ADC_1_SetDSMRef0Reg(uint8)
1712:Generated_Source\PSoC5/ADC_1.c **** ******************************************************************************
1713:Generated_Source\PSoC5/ADC_1.c **** *
1714:Generated_Source\PSoC5/ADC_1.c **** * Summary:
1715:Generated_Source\PSoC5/ADC_1.c **** *  This API sets the DSM_REF0 register. This is written for internal use.
1716:Generated_Source\PSoC5/ADC_1.c **** *
1717:Generated_Source\PSoC5/ADC_1.c **** * Parameters:
1718:Generated_Source\PSoC5/ADC_1.c **** *  value:  Value to be written to DSM_REF0 register.
1719:Generated_Source\PSoC5/ADC_1.c **** *
1720:Generated_Source\PSoC5/ADC_1.c **** * Return:
1721:Generated_Source\PSoC5/ADC_1.c **** *  None
1722:Generated_Source\PSoC5/ADC_1.c **** *
ARM GAS  C:\Users\karth\AppData\Local\Temp\ccX3KBuT.s 			page 35


1723:Generated_Source\PSoC5/ADC_1.c **** ******************************************************************************/
1724:Generated_Source\PSoC5/ADC_1.c **** static void ADC_1_SetDSMRef0Reg(uint8 value) 
1725:Generated_Source\PSoC5/ADC_1.c **** {
 217              		.loc 1 1725 0
 218              		.cfi_startproc
 219              		@ args = 0, pretend = 0, frame = 0
 220              		@ frame_needed = 0, uses_anonymous_args = 0
 221              	.LVL35:
 222 0000 F8B5     		push	{r3, r4, r5, r6, r7, lr}
 223              		.cfi_def_cfa_offset 24
 224              		.cfi_offset 3, -24
 225              		.cfi_offset 4, -20
 226              		.cfi_offset 5, -16
 227              		.cfi_offset 6, -12
 228              		.cfi_offset 7, -8
 229              		.cfi_offset 14, -4
 230 0002 0746     		mov	r7, r0
1726:Generated_Source\PSoC5/ADC_1.c ****     uint8 enableInterrupts;
1727:Generated_Source\PSoC5/ADC_1.c ****     enableInterrupts = CyEnterCriticalSection();
 231              		.loc 1 1727 0
 232 0004 FFF7FEFF 		bl	CyEnterCriticalSection
 233              	.LVL36:
 234 0008 0646     		mov	r6, r0
 235              	.LVL37:
1728:Generated_Source\PSoC5/ADC_1.c **** 
1729:Generated_Source\PSoC5/ADC_1.c ****     /* Disable PRES, Enable power to VCMBUF0, REFBUF0 and REFBUF1, enable PRES */
1730:Generated_Source\PSoC5/ADC_1.c ****     ADC_1_RESET_CR4_REG |= (ADC_1_IGNORE_PRESA1 | ADC_1_IGNORE_PRESD1);
 236              		.loc 1 1730 0
 237 000a 0D4D     		ldr	r5, .L22
 238 000c 2B78     		ldrb	r3, [r5]	@ zero_extendqisi2
 239 000e 43F00303 		orr	r3, r3, #3
 240 0012 2B70     		strb	r3, [r5]
1731:Generated_Source\PSoC5/ADC_1.c ****     ADC_1_RESET_CR5_REG |= (ADC_1_IGNORE_PRESA2 | ADC_1_IGNORE_PRESD2);
 241              		.loc 1 1731 0
 242 0014 0B4C     		ldr	r4, .L22+4
 243 0016 2378     		ldrb	r3, [r4]	@ zero_extendqisi2
 244 0018 43F00303 		orr	r3, r3, #3
 245 001c 2370     		strb	r3, [r4]
1732:Generated_Source\PSoC5/ADC_1.c ****     ADC_1_DSM_REF0_REG = value;
 246              		.loc 1 1732 0
 247 001e 0A4B     		ldr	r3, .L22+8
 248 0020 1F70     		strb	r7, [r3]
1733:Generated_Source\PSoC5/ADC_1.c **** 
1734:Generated_Source\PSoC5/ADC_1.c ****     /* Wait for 3 microseconds */
1735:Generated_Source\PSoC5/ADC_1.c ****     CyDelayUs(ADC_1_PRES_DELAY_TIME);
 249              		.loc 1 1735 0
 250 0022 0320     		movs	r0, #3
 251 0024 FFF7FEFF 		bl	CyDelayUs
 252              	.LVL38:
1736:Generated_Source\PSoC5/ADC_1.c ****     /* Enable the press circuit */
1737:Generated_Source\PSoC5/ADC_1.c ****     ADC_1_RESET_CR4_REG &= (uint8)~(ADC_1_IGNORE_PRESA1 | ADC_1_IGNORE_PRESD1);
 253              		.loc 1 1737 0
 254 0028 2B78     		ldrb	r3, [r5]	@ zero_extendqisi2
 255 002a 03F0FC03 		and	r3, r3, #252
 256 002e 2B70     		strb	r3, [r5]
1738:Generated_Source\PSoC5/ADC_1.c ****     ADC_1_RESET_CR5_REG &= (uint8)~(ADC_1_IGNORE_PRESA2 | ADC_1_IGNORE_PRESD2);
 257              		.loc 1 1738 0
ARM GAS  C:\Users\karth\AppData\Local\Temp\ccX3KBuT.s 			page 36


 258 0030 2378     		ldrb	r3, [r4]	@ zero_extendqisi2
 259 0032 03F0FC03 		and	r3, r3, #252
 260 0036 2370     		strb	r3, [r4]
1739:Generated_Source\PSoC5/ADC_1.c **** 
1740:Generated_Source\PSoC5/ADC_1.c ****     CyExitCriticalSection(enableInterrupts);
 261              		.loc 1 1740 0
 262 0038 3046     		mov	r0, r6
 263 003a FFF7FEFF 		bl	CyExitCriticalSection
 264              	.LVL39:
 265 003e F8BD     		pop	{r3, r4, r5, r6, r7, pc}
 266              	.LVL40:
 267              	.L23:
 268              		.align	2
 269              	.L22:
 270 0040 F8460040 		.word	1073759992
 271 0044 F9460040 		.word	1073759993
 272 0048 92580040 		.word	1073764498
 273              		.cfi_endproc
 274              	.LFE22:
 275              		.size	ADC_1_SetDSMRef0Reg, .-ADC_1_SetDSMRef0Reg
 276              		.section	.text.ADC_1_InitConfig,"ax",%progbits
 277              		.align	2
 278              		.thumb
 279              		.thumb_func
 280              		.type	ADC_1_InitConfig, %function
 281              	ADC_1_InitConfig:
 282              	.LFB19:
1243:Generated_Source\PSoC5/ADC_1.c ****     ADC_1_stopConversion = 0u;
 283              		.loc 1 1243 0
 284              		.cfi_startproc
 285              		@ args = 0, pretend = 0, frame = 0
 286              		@ frame_needed = 0, uses_anonymous_args = 0
 287              	.LVL41:
 288 0000 38B5     		push	{r3, r4, r5, lr}
 289              		.cfi_def_cfa_offset 16
 290              		.cfi_offset 3, -16
 291              		.cfi_offset 4, -12
 292              		.cfi_offset 5, -8
 293              		.cfi_offset 14, -4
1244:Generated_Source\PSoC5/ADC_1.c **** 
 294              		.loc 1 1244 0
 295 0002 0022     		movs	r2, #0
 296 0004 314B     		ldr	r3, .L27
 297 0006 1A71     		strb	r2, [r3, #4]
1246:Generated_Source\PSoC5/ADC_1.c ****     {
 298              		.loc 1 1246 0
 299 0008 0128     		cmp	r0, #1
 300 000a 5DD1     		bne	.L24
1249:Generated_Source\PSoC5/ADC_1.c ****         ADC_1_DEC_SHIFT1_REG  = ADC_1_CFG1_DEC_SHIFT1;
 301              		.loc 1 1249 0
 302 000c F822     		movs	r2, #248
 303 000e 304B     		ldr	r3, .L27+4
 304 0010 1A70     		strb	r2, [r3]
1250:Generated_Source\PSoC5/ADC_1.c ****         ADC_1_DEC_SHIFT2_REG  = ADC_1_CFG1_DEC_SHIFT2;
 305              		.loc 1 1250 0
 306 0012 0024     		movs	r4, #0
 307 0014 0233     		adds	r3, r3, #2
ARM GAS  C:\Users\karth\AppData\Local\Temp\ccX3KBuT.s 			page 37


 308 0016 1C70     		strb	r4, [r3]
1251:Generated_Source\PSoC5/ADC_1.c ****         ADC_1_DEC_DR2_REG     = ADC_1_CFG1_DEC_DR2;
 309              		.loc 1 1251 0
 310 0018 0722     		movs	r2, #7
 311 001a 0133     		adds	r3, r3, #1
 312 001c 1A70     		strb	r2, [r3]
1252:Generated_Source\PSoC5/ADC_1.c ****         ADC_1_DEC_DR2H_REG    = ADC_1_CFG1_DEC_DR2H;
 313              		.loc 1 1252 0
 314 001e 7F23     		movs	r3, #127
 315 0020 2C4A     		ldr	r2, .L27+8
 316 0022 1370     		strb	r3, [r2]
1253:Generated_Source\PSoC5/ADC_1.c ****         ADC_1_DEC_DR1_REG     = ADC_1_CFG1_DEC_DR1;
 317              		.loc 1 1253 0
 318 0024 0132     		adds	r2, r2, #1
 319 0026 1470     		strb	r4, [r2]
1254:Generated_Source\PSoC5/ADC_1.c ****         ADC_1_DEC_OCOR_REG    = ADC_1_CFG1_DEC_OCOR;
 320              		.loc 1 1254 0
 321 0028 0132     		adds	r2, r2, #1
 322 002a 1370     		strb	r3, [r2]
1255:Generated_Source\PSoC5/ADC_1.c ****         ADC_1_DEC_OCORM_REG   = ADC_1_CFG1_DEC_OCORM;
 323              		.loc 1 1255 0
 324 002c 2A4B     		ldr	r3, .L27+12
 325 002e 1C70     		strb	r4, [r3]
1256:Generated_Source\PSoC5/ADC_1.c ****         ADC_1_DEC_OCORH_REG   = ADC_1_CFG1_DEC_OCORH;
 326              		.loc 1 1256 0
 327 0030 0133     		adds	r3, r3, #1
 328 0032 1C70     		strb	r4, [r3]
1257:Generated_Source\PSoC5/ADC_1.c ****         ADC_1_DEC_COHER_REG   = ADC_1_CFG1_DEC_COHER;
 329              		.loc 1 1257 0
 330 0034 0133     		adds	r3, r3, #1
 331 0036 1C70     		strb	r4, [r3]
1258:Generated_Source\PSoC5/ADC_1.c **** 
 332              		.loc 1 1258 0
 333 0038 0322     		movs	r2, #3
 334 003a 0A33     		adds	r3, r3, #10
 335 003c 1A70     		strb	r2, [r3]
1260:Generated_Source\PSoC5/ADC_1.c ****         ADC_1_DSM_CR5_REG     = ADC_1_CFG1_DSM_CR5;
 336              		.loc 1 1260 0
 337 003e 5022     		movs	r2, #80
 338 0040 03F52763 		add	r3, r3, #2672
 339 0044 1A70     		strb	r2, [r3]
1261:Generated_Source\PSoC5/ADC_1.c ****         ADC_1_DSM_CR6_REG     = ADC_1_CFG1_DSM_CR6;
 340              		.loc 1 1261 0
 341 0046 7C22     		movs	r2, #124
 342 0048 0133     		adds	r3, r3, #1
 343 004a 1A70     		strb	r2, [r3]
1262:Generated_Source\PSoC5/ADC_1.c ****         ADC_1_DSM_CR7_REG     = ADC_1_CFG1_DSM_CR7;
 344              		.loc 1 1262 0
 345 004c 0C22     		movs	r2, #12
 346 004e 0133     		adds	r3, r3, #1
 347 0050 1A70     		strb	r2, [r3]
1263:Generated_Source\PSoC5/ADC_1.c ****         ADC_1_DSM_CR10_REG    = ADC_1_CFG1_DSM_CR10;
 348              		.loc 1 1263 0
 349 0052 2022     		movs	r2, #32
 350 0054 0133     		adds	r3, r3, #1
 351 0056 1A70     		strb	r2, [r3]
1264:Generated_Source\PSoC5/ADC_1.c ****         ADC_1_DSM_CR11_REG    = ADC_1_CFG1_DSM_CR11;
ARM GAS  C:\Users\karth\AppData\Local\Temp\ccX3KBuT.s 			page 38


 352              		.loc 1 1264 0
 353 0058 4420     		movs	r0, #68
 354              	.LVL42:
 355 005a 0333     		adds	r3, r3, #3
 356 005c 1870     		strb	r0, [r3]
1265:Generated_Source\PSoC5/ADC_1.c ****         ADC_1_DSM_CR12_REG    = ADC_1_CFG1_DSM_CR12;
 357              		.loc 1 1265 0
 358 005e 4222     		movs	r2, #66
 359 0060 0133     		adds	r3, r3, #1
 360 0062 1A70     		strb	r2, [r3]
1266:Generated_Source\PSoC5/ADC_1.c ****         ADC_1_DSM_CR14_REG    = ADC_1_CFG1_DSM_CR14;
 361              		.loc 1 1266 0
 362 0064 1222     		movs	r2, #18
 363 0066 0133     		adds	r3, r3, #1
 364 0068 1A70     		strb	r2, [r3]
1267:Generated_Source\PSoC5/ADC_1.c ****         ADC_1_DSM_CR15_REG    = ADC_1_CFG1_DSM_CR15;
 365              		.loc 1 1267 0
 366 006a 0125     		movs	r5, #1
 367 006c 0233     		adds	r3, r3, #2
 368 006e 1D70     		strb	r5, [r3]
1268:Generated_Source\PSoC5/ADC_1.c ****         ADC_1_DSM_CR16_REG    = ADC_1_CFG1_DSM_CR16;
 369              		.loc 1 1268 0
 370 0070 1122     		movs	r2, #17
 371 0072 0133     		adds	r3, r3, #1
 372 0074 1A70     		strb	r2, [r3]
1269:Generated_Source\PSoC5/ADC_1.c ****         ADC_1_DSM_CR17_REG    = ADC_1_CFG1_DSM_CR17;
 373              		.loc 1 1269 0
 374 0076 1922     		movs	r2, #25
 375 0078 0133     		adds	r3, r3, #1
 376 007a 1A70     		strb	r2, [r3]
1270:Generated_Source\PSoC5/ADC_1.c ****         /* Set DSM_REF0_REG by disabling and enabling the PRESS circuit */
 377              		.loc 1 1270 0
 378 007c 9722     		movs	r2, #151
 379 007e 0133     		adds	r3, r3, #1
 380 0080 1A70     		strb	r2, [r3]
1272:Generated_Source\PSoC5/ADC_1.c ****         ADC_1_DSM_REF2_REG    = ADC_1_CFG1_DSM_REF2;
 381              		.loc 1 1272 0
 382 0082 FFF7FEFF 		bl	ADC_1_SetDSMRef0Reg
 383              	.LVL43:
1273:Generated_Source\PSoC5/ADC_1.c ****         ADC_1_DSM_REF3_REG    = ADC_1_CFG1_DSM_REF3;
 384              		.loc 1 1273 0
 385 0086 4722     		movs	r2, #71
 386 0088 144B     		ldr	r3, .L27+16
 387 008a 1A70     		strb	r2, [r3]
1274:Generated_Source\PSoC5/ADC_1.c **** 
 388              		.loc 1 1274 0
 389 008c 0133     		adds	r3, r3, #1
 390 008e 1C70     		strb	r4, [r3]
1276:Generated_Source\PSoC5/ADC_1.c ****         ADC_1_DSM_BUF1_REG    = ADC_1_CFG1_DSM_BUF1;
 391              		.loc 1 1276 0
 392 0090 0522     		movs	r2, #5
 393 0092 0533     		adds	r3, r3, #5
 394 0094 1A70     		strb	r2, [r3]
1277:Generated_Source\PSoC5/ADC_1.c ****         ADC_1_DSM_BUF2_REG    = ADC_1_CFG1_DSM_BUF2;
 395              		.loc 1 1277 0
 396 0096 0D22     		movs	r2, #13
 397 0098 0133     		adds	r3, r3, #1
ARM GAS  C:\Users\karth\AppData\Local\Temp\ccX3KBuT.s 			page 39


 398 009a 1A70     		strb	r2, [r3]
1278:Generated_Source\PSoC5/ADC_1.c ****         ADC_1_DSM_BUF3_REG    = ADC_1_CFG1_DSM_BUF3;
 399              		.loc 1 1278 0
 400 009c 0133     		adds	r3, r3, #1
 401 009e 1C70     		strb	r4, [r3]
1279:Generated_Source\PSoC5/ADC_1.c **** 
 402              		.loc 1 1279 0
 403 00a0 0A22     		movs	r2, #10
 404 00a2 0133     		adds	r3, r3, #1
 405 00a4 1A70     		strb	r2, [r3]
1300:Generated_Source\PSoC5/ADC_1.c **** 
 406              		.loc 1 1300 0
 407 00a6 4FF4FA02 		mov	r2, #8192000
 408 00aa 0D4B     		ldr	r3, .L27+20
 409 00ac 1A60     		str	r2, [r3]
1302:Generated_Source\PSoC5/ADC_1.c **** 
 410              		.loc 1 1302 0
 411 00ae 2946     		mov	r1, r5
 412 00b0 4120     		movs	r0, #65
 413 00b2 FFF7FEFF 		bl	ADC_1_Ext_CP_Clk_SetDividerRegister
 414              	.LVL44:
1306:Generated_Source\PSoC5/ADC_1.c ****         #endif /* ADC_1_DEFAULT_INTERNAL_CLK */
 415              		.loc 1 1306 0
 416 00b6 2946     		mov	r1, r5
 417 00b8 40F20910 		movw	r0, #265
 418 00bc FFF7FEFF 		bl	ADC_1_theACLK_SetDividerRegister
 419              	.LVL45:
1311:Generated_Source\PSoC5/ADC_1.c ****         #endif   /* End ADC_1_IRQ_REMOVE */
 420              		.loc 1 1311 0
 421 00c0 0849     		ldr	r1, .L27+24
 422 00c2 1D20     		movs	r0, #29
 423 00c4 FFF7FEFF 		bl	CyIntSetVector
 424              	.LVL46:
 425              	.L24:
 426 00c8 38BD     		pop	{r3, r4, r5, pc}
 427              	.L28:
 428 00ca 00BF     		.align	2
 429              	.L27:
 430 00cc 00000000 		.word	.LANCHOR0
 431 00d0 004E0040 		.word	1073761792
 432 00d4 044E0040 		.word	1073761796
 433 00d8 084E0040 		.word	1073761800
 434 00dc 94580040 		.word	1073764500
 435 00e0 00000000 		.word	ADC_1_CountsPerVolt
 436 00e4 00000000 		.word	ADC_1_ISR1
 437              		.cfi_endproc
 438              	.LFE19:
 439              		.size	ADC_1_InitConfig, .-ADC_1_InitConfig
 440              		.section	.text.ADC_1_Init,"ax",%progbits
 441              		.align	2
 442              		.global	ADC_1_Init
 443              		.thumb
 444              		.thumb_func
 445              		.type	ADC_1_Init, %function
 446              	ADC_1_Init:
 447              	.LFB0:
  92:Generated_Source\PSoC5/ADC_1.c **** 
ARM GAS  C:\Users\karth\AppData\Local\Temp\ccX3KBuT.s 			page 40


 448              		.loc 1 92 0
 449              		.cfi_startproc
 450              		@ args = 0, pretend = 0, frame = 0
 451              		@ frame_needed = 0, uses_anonymous_args = 0
 452 0000 F0B5     		push	{r4, r5, r6, r7, lr}
 453              		.cfi_def_cfa_offset 20
 454              		.cfi_offset 4, -20
 455              		.cfi_offset 5, -16
 456              		.cfi_offset 6, -12
 457              		.cfi_offset 7, -8
 458              		.cfi_offset 14, -4
 459 0002 83B0     		sub	sp, sp, #12
 460              		.cfi_def_cfa_offset 32
  94:Generated_Source\PSoC5/ADC_1.c ****     ADC_1_convDone = 0u;
 461              		.loc 1 94 0
 462 0004 294D     		ldr	r5, .L31
 463 0006 0127     		movs	r7, #1
 464 0008 2F70     		strb	r7, [r5]
  95:Generated_Source\PSoC5/ADC_1.c **** 
 465              		.loc 1 95 0
 466 000a 294E     		ldr	r6, .L31+4
 467 000c 0024     		movs	r4, #0
 468 000e 7471     		strb	r4, [r6, #5]
  97:Generated_Source\PSoC5/ADC_1.c **** 
 469              		.loc 1 97 0
 470 0010 1020     		movs	r0, #16
 471 0012 FFF7FEFF 		bl	ADC_1_Ext_CP_Clk_SetModeRegister
 472              	.LVL47:
 101:Generated_Source\PSoC5/ADC_1.c ****     #endif /* ADC_1_DEFAULT_INTERNAL_CLK */
 473              		.loc 1 101 0
 474 0016 1020     		movs	r0, #16
 475 0018 FFF7FEFF 		bl	ADC_1_theACLK_SetModeRegister
 476              	.LVL48:
 106:Generated_Source\PSoC5/ADC_1.c ****     #endif   /* End ADC_1_IRQ_REMOVE */
 477              		.loc 1 106 0
 478 001c 0721     		movs	r1, #7
 479 001e 1D20     		movs	r0, #29
 480 0020 FFF7FEFF 		bl	CyIntSetPriority
 481              	.LVL49:
 110:Generated_Source\PSoC5/ADC_1.c ****     ADC_1_DSM_DEM1_REG    = ADC_1_CFG1_DSM_DEM1;
 482              		.loc 1 110 0
 483 0024 0422     		movs	r2, #4
 484 0026 234B     		ldr	r3, .L31+8
 485 0028 1A70     		strb	r2, [r3]
 111:Generated_Source\PSoC5/ADC_1.c ****     ADC_1_DSM_MISC_REG    = ADC_1_CFG1_DSM_MISC;
 486              		.loc 1 111 0
 487 002a 0133     		adds	r3, r3, #1
 488 002c 1C70     		strb	r4, [r3]
 112:Generated_Source\PSoC5/ADC_1.c ****     ADC_1_DSM_CLK_REG    |= ADC_1_CFG1_DSM_CLK;
 489              		.loc 1 112 0
 490 002e 0733     		adds	r3, r3, #7
 491 0030 1C70     		strb	r4, [r3]
 113:Generated_Source\PSoC5/ADC_1.c ****     ADC_1_DSM_REF1_REG    = ADC_1_CFG1_DSM_REF1;
 492              		.loc 1 113 0
 493 0032 214A     		ldr	r2, .L31+12
 494 0034 1378     		ldrb	r3, [r2]	@ zero_extendqisi2
 495 0036 43F01803 		orr	r3, r3, #24
ARM GAS  C:\Users\karth\AppData\Local\Temp\ccX3KBuT.s 			page 41


 496 003a 1370     		strb	r3, [r2]
 114:Generated_Source\PSoC5/ADC_1.c **** 
 497              		.loc 1 114 0
 498 003c 1F4B     		ldr	r3, .L31+16
 499 003e 1C70     		strb	r4, [r3]
 116:Generated_Source\PSoC5/ADC_1.c ****     ADC_1_DSM_OUT1_REG    = ADC_1_CFG1_DSM_OUT1;
 500              		.loc 1 116 0
 501 0040 03F2F523 		addw	r3, r3, #757
 502 0044 1C70     		strb	r4, [r3]
 117:Generated_Source\PSoC5/ADC_1.c **** 
 503              		.loc 1 117 0
 504 0046 0133     		adds	r3, r3, #1
 505 0048 1C70     		strb	r4, [r3]
 119:Generated_Source\PSoC5/ADC_1.c ****     ADC_1_DSM_CR1_REG     = ADC_1_CFG1_DSM_CR1;
 506              		.loc 1 119 0
 507 004a 0A20     		movs	r0, #10
 508 004c A3F20933 		subw	r3, r3, #777
 509 0050 1870     		strb	r0, [r3]
 120:Generated_Source\PSoC5/ADC_1.c **** #if(ADC_1_MI_ENABLE != 0u) /* Enable Modulator Input */
 510              		.loc 1 120 0
 511 0052 0133     		adds	r3, r3, #1
 512 0054 1C70     		strb	r4, [r3]
 122:Generated_Source\PSoC5/ADC_1.c **** #else
 513              		.loc 1 122 0
 514 0056 A2F52172 		sub	r2, r2, #644
 515 005a 1378     		ldrb	r3, [r2]	@ zero_extendqisi2
 516 005c 43F01003 		orr	r3, r3, #16
 517 0060 1370     		strb	r3, [r2]
 126:Generated_Source\PSoC5/ADC_1.c ****     ADC_1_DSM_CR9_REG     = ADC_1_CFG1_DSM_CR9;
 518              		.loc 1 126 0
 519 0062 5B22     		movs	r2, #91
 520 0064 164B     		ldr	r3, .L31+20
 521 0066 1A70     		strb	r2, [r3]
 127:Generated_Source\PSoC5/ADC_1.c ****     ADC_1_DSM_CR13_REG    = ADC_1_CFG1_DSM_CR13;
 522              		.loc 1 127 0
 523 0068 5E22     		movs	r2, #94
 524 006a 0133     		adds	r3, r3, #1
 525 006c 1A70     		strb	r2, [r3]
 128:Generated_Source\PSoC5/ADC_1.c **** 
 526              		.loc 1 128 0
 527 006e 0433     		adds	r3, r3, #4
 528 0070 1C70     		strb	r4, [r3]
 130:Generated_Source\PSoC5/ADC_1.c **** 
 529              		.loc 1 130 0
 530 0072 1423     		movs	r3, #20
 531 0074 134A     		ldr	r2, .L31+24
 532 0076 1370     		strb	r3, [r2]
 133:Generated_Source\PSoC5/ADC_1.c ****                                       ADC_1_CFG1_IDEAL_DEC_GAIN,
 533              		.loc 1 133 0
 534 0078 0097     		str	r7, [sp]
 535 007a 4FF40042 		mov	r2, #32768
 536 007e 48F6E261 		movw	r1, #36578
 537 0082 FFF7FEFF 		bl	ADC_1_GainCompensation
 538              	.LVL50:
 161:Generated_Source\PSoC5/ADC_1.c ****     CY_SET_REG16(ADC_1_DEC_GCOR_16B_PTR, ADC_1_gcor[ADC_1_Config - 1u].gcor);
 539              		.loc 1 161 0
 540 0086 2B78     		ldrb	r3, [r5]	@ zero_extendqisi2
ARM GAS  C:\Users\karth\AppData\Local\Temp\ccX3KBuT.s 			page 42


 541 0088 013B     		subs	r3, r3, #1
 542 008a 06EB8303 		add	r3, r6, r3, lsl #2
 543 008e 9A78     		ldrb	r2, [r3, #2]	@ zero_extendqisi2
 544 0090 0D4B     		ldr	r3, .L31+28
 545 0092 1A70     		strb	r2, [r3]
 162:Generated_Source\PSoC5/ADC_1.c **** 
 546              		.loc 1 162 0
 547 0094 2B78     		ldrb	r3, [r5]	@ zero_extendqisi2
 548 0096 013B     		subs	r3, r3, #1
 549 0098 36F82320 		ldrh	r2, [r6, r3, lsl #2]
 550 009c 0B4B     		ldr	r3, .L31+32
 551 009e 1A80     		strh	r2, [r3]	@ movhi
 165:Generated_Source\PSoC5/ADC_1.c **** }
 552              		.loc 1 165 0
 553 00a0 2878     		ldrb	r0, [r5]	@ zero_extendqisi2
 554 00a2 FFF7FEFF 		bl	ADC_1_InitConfig
 555              	.LVL51:
 166:Generated_Source\PSoC5/ADC_1.c **** 
 556              		.loc 1 166 0
 557 00a6 03B0     		add	sp, sp, #12
 558              		.cfi_def_cfa_offset 20
 559              		@ sp needed
 560 00a8 F0BD     		pop	{r4, r5, r6, r7, pc}
 561              	.L32:
 562 00aa 00BF     		.align	2
 563              	.L31:
 564 00ac 00000000 		.word	.LANCHOR1
 565 00b0 00000000 		.word	.LANCHOR0
 566 00b4 96580040 		.word	1073764502
 567 00b8 075B0040 		.word	1073765127
 568 00bc 93580040 		.word	1073764499
 569 00c0 88580040 		.word	1073764488
 570 00c4 014E0040 		.word	1073761793
 571 00c8 0E4E0040 		.word	1073761806
 572 00cc 0C4E0040 		.word	1073761804
 573              		.cfi_endproc
 574              	.LFE0:
 575              		.size	ADC_1_Init, .-ADC_1_Init
 576              		.section	.text.ADC_1_Enable,"ax",%progbits
 577              		.align	2
 578              		.global	ADC_1_Enable
 579              		.thumb
 580              		.thumb_func
 581              		.type	ADC_1_Enable, %function
 582              	ADC_1_Enable:
 583              	.LFB1:
 185:Generated_Source\PSoC5/ADC_1.c **** 	uint8 config;
 584              		.loc 1 185 0
 585              		.cfi_startproc
 586              		@ args = 0, pretend = 0, frame = 0
 587              		@ frame_needed = 0, uses_anonymous_args = 0
 588 0000 70B5     		push	{r4, r5, r6, lr}
 589              		.cfi_def_cfa_offset 16
 590              		.cfi_offset 4, -16
 591              		.cfi_offset 5, -12
 592              		.cfi_offset 6, -8
 593              		.cfi_offset 14, -4
ARM GAS  C:\Users\karth\AppData\Local\Temp\ccX3KBuT.s 			page 43


 188:Generated_Source\PSoC5/ADC_1.c **** 
 594              		.loc 1 188 0
 595 0002 FFF7FEFF 		bl	CyEnterCriticalSection
 596              	.LVL52:
 597 0006 0646     		mov	r6, r0
 598              	.LVL53:
 191:Generated_Source\PSoC5/ADC_1.c ****     
 599              		.loc 1 191 0
 600 0008 2A4B     		ldr	r3, .L35
 601 000a 1B78     		ldrb	r3, [r3]	@ zero_extendqisi2
 602              	.LVL54:
 194:Generated_Source\PSoC5/ADC_1.c ****     ADC_1_PWRMGR_DSM_REG |= ADC_1_ACT_PWR_DSM_EN;
 603              		.loc 1 194 0
 604 000c 2A4B     		ldr	r3, .L35+4
 605 000e 1A78     		ldrb	r2, [r3]	@ zero_extendqisi2
 606 0010 42F00102 		orr	r2, r2, #1
 607 0014 1A70     		strb	r2, [r3]
 195:Generated_Source\PSoC5/ADC_1.c **** 
 608              		.loc 1 195 0
 609 0016 1A78     		ldrb	r2, [r3]	@ zero_extendqisi2
 610 0018 42F01002 		orr	r2, r2, #16
 611 001c 1A70     		strb	r2, [r3]
 198:Generated_Source\PSoC5/ADC_1.c ****     ADC_1_STBY_PWRMGR_DSM_REG |= ADC_1_STBY_PWR_DSM_EN;
 612              		.loc 1 198 0
 613 001e 1033     		adds	r3, r3, #16
 614 0020 1A78     		ldrb	r2, [r3]	@ zero_extendqisi2
 615 0022 42F00102 		orr	r2, r2, #1
 616 0026 1A70     		strb	r2, [r3]
 199:Generated_Source\PSoC5/ADC_1.c **** 
 617              		.loc 1 199 0
 618 0028 1A78     		ldrb	r2, [r3]	@ zero_extendqisi2
 619 002a 42F01002 		orr	r2, r2, #16
 620 002e 1A70     		strb	r2, [r3]
 202:Generated_Source\PSoC5/ADC_1.c ****     ADC_1_RESET_CR5_REG |= ADC_1_IGNORE_PRESA2;
 621              		.loc 1 202 0
 622 0030 224D     		ldr	r5, .L35+8
 623 0032 2B78     		ldrb	r3, [r5]	@ zero_extendqisi2
 624 0034 43F00203 		orr	r3, r3, #2
 625 0038 2B70     		strb	r3, [r5]
 203:Generated_Source\PSoC5/ADC_1.c **** 
 626              		.loc 1 203 0
 627 003a 214C     		ldr	r4, .L35+12
 628 003c 2378     		ldrb	r3, [r4]	@ zero_extendqisi2
 629 003e 43F00203 		orr	r3, r3, #2
 630 0042 2370     		strb	r3, [r4]
 205:Generated_Source\PSoC5/ADC_1.c **** 
 631              		.loc 1 205 0
 632 0044 1F4A     		ldr	r2, .L35+16
 633 0046 1378     		ldrb	r3, [r2]	@ zero_extendqisi2
 634 0048 43F00303 		orr	r3, r3, #3
 635 004c 1370     		strb	r3, [r2]
 271:Generated_Source\PSoC5/ADC_1.c **** 
 636              		.loc 1 271 0
 637 004e 0320     		movs	r0, #3
 638 0050 FFF7FEFF 		bl	CyDelayUs
 639              	.LVL55:
 274:Generated_Source\PSoC5/ADC_1.c ****     ADC_1_RESET_CR5_REG &= (uint8)~ADC_1_IGNORE_PRESA2;
ARM GAS  C:\Users\karth\AppData\Local\Temp\ccX3KBuT.s 			page 44


 640              		.loc 1 274 0
 641 0054 2B78     		ldrb	r3, [r5]	@ zero_extendqisi2
 642 0056 03F0FD03 		and	r3, r3, #253
 643 005a 2B70     		strb	r3, [r5]
 275:Generated_Source\PSoC5/ADC_1.c **** 
 644              		.loc 1 275 0
 645 005c 2378     		ldrb	r3, [r4]	@ zero_extendqisi2
 646 005e 03F0FD03 		and	r3, r3, #253
 647 0062 2370     		strb	r3, [r4]
 278:Generated_Source\PSoC5/ADC_1.c **** 
 648              		.loc 1 278 0
 649 0064 184A     		ldr	r2, .L35+20
 650 0066 1378     		ldrb	r3, [r2]	@ zero_extendqisi2
 651 0068 43F00603 		orr	r3, r3, #6
 652 006c 1370     		strb	r3, [r2]
 281:Generated_Source\PSoC5/ADC_1.c **** 
 653              		.loc 1 281 0
 654 006e 7A22     		movs	r2, #122
 655 0070 164B     		ldr	r3, .L35+24
 656 0072 1A70     		strb	r2, [r3]
 285:Generated_Source\PSoC5/ADC_1.c ****         ADC_1_STBY_PWRMGR_CLK_REG |= ADC_1_STBY_PWR_CLK_EN;
 657              		.loc 1 285 0
 658 0074 164A     		ldr	r2, .L35+28
 659 0076 1378     		ldrb	r3, [r2]	@ zero_extendqisi2
 660 0078 43F00103 		orr	r3, r3, #1
 661 007c 1370     		strb	r3, [r2]
 286:Generated_Source\PSoC5/ADC_1.c ****     #endif /* ADC_1_DEFAULT_INTERNAL_CLK */
 662              		.loc 1 286 0
 663 007e 1032     		adds	r2, r2, #16
 664 0080 1378     		ldrb	r3, [r2]	@ zero_extendqisi2
 665 0082 43F00103 		orr	r3, r3, #1
 666 0086 1370     		strb	r3, [r2]
 290:Generated_Source\PSoC5/ADC_1.c ****     ADC_1_STBY_PWRMGR_CHARGE_PUMP_CLK_REG |= ADC_1_STBY_PWR_CHARGE_PUMP_CLK_EN;
 667              		.loc 1 290 0
 668 0088 0F3A     		subs	r2, r2, #15
 669 008a 1378     		ldrb	r3, [r2]	@ zero_extendqisi2
 670 008c 43F00103 		orr	r3, r3, #1
 671 0090 1370     		strb	r3, [r2]
 291:Generated_Source\PSoC5/ADC_1.c **** 
 672              		.loc 1 291 0
 673 0092 1032     		adds	r2, r2, #16
 674 0094 1378     		ldrb	r3, [r2]	@ zero_extendqisi2
 675 0096 43F00103 		orr	r3, r3, #1
 676 009a 1370     		strb	r3, [r2]
 295:Generated_Source\PSoC5/ADC_1.c ****         /* Enable interrupt */
 677              		.loc 1 295 0
 678 009c 4FF00053 		mov	r3, #536870912
 679 00a0 0C4A     		ldr	r2, .L35+32
 680 00a2 1360     		str	r3, [r2]
 297:Generated_Source\PSoC5/ADC_1.c ****     #endif   /* End ADC_1_IRQ_REMOVE */
 681              		.loc 1 297 0
 682 00a4 A2F5C072 		sub	r2, r2, #384
 683 00a8 1360     		str	r3, [r2]
 300:Generated_Source\PSoC5/ADC_1.c **** 
 684              		.loc 1 300 0
 685 00aa 3046     		mov	r0, r6
 686 00ac FFF7FEFF 		bl	CyExitCriticalSection
ARM GAS  C:\Users\karth\AppData\Local\Temp\ccX3KBuT.s 			page 45


 687              	.LVL56:
 688 00b0 70BD     		pop	{r4, r5, r6, pc}
 689              	.LVL57:
 690              	.L36:
 691 00b2 00BF     		.align	2
 692              	.L35:
 693 00b4 00000000 		.word	.LANCHOR1
 694 00b8 AA430040 		.word	1073759146
 695 00bc F8460040 		.word	1073759992
 696 00c0 F9460040 		.word	1073759993
 697 00c4 91580040 		.word	1073764497
 698 00c8 77580040 		.word	1073764471
 699 00cc 82580040 		.word	1073764482
 700 00d0 A1430040 		.word	1073759137
 701 00d4 80E200E0 		.word	-536812928
 702              		.cfi_endproc
 703              	.LFE1:
 704              		.size	ADC_1_Enable, .-ADC_1_Enable
 705              		.section	.text.ADC_1_Start,"ax",%progbits
 706              		.align	2
 707              		.global	ADC_1_Start
 708              		.thumb
 709              		.thumb_func
 710              		.type	ADC_1_Start, %function
 711              	ADC_1_Start:
 712              	.LFB2:
 330:Generated_Source\PSoC5/ADC_1.c ****     if(ADC_1_initVar == 0u)
 713              		.loc 1 330 0
 714              		.cfi_startproc
 715              		@ args = 0, pretend = 0, frame = 0
 716              		@ frame_needed = 0, uses_anonymous_args = 0
 717 0000 08B5     		push	{r3, lr}
 718              		.cfi_def_cfa_offset 8
 719              		.cfi_offset 3, -8
 720              		.cfi_offset 14, -4
 331:Generated_Source\PSoC5/ADC_1.c ****     {
 721              		.loc 1 331 0
 722 0002 084B     		ldr	r3, .L41
 723 0004 9B79     		ldrb	r3, [r3, #6]	@ zero_extendqisi2
 724 0006 4BB9     		cbnz	r3, .L38
 333:Generated_Source\PSoC5/ADC_1.c ****         {
 725              		.loc 1 333 0
 726 0008 064B     		ldr	r3, .L41
 727 000a DB79     		ldrb	r3, [r3, #7]	@ zero_extendqisi2
 728 000c 13F0FF0F 		tst	r3, #255
 729 0010 01D1     		bne	.L39
 335:Generated_Source\PSoC5/ADC_1.c ****         }
 730              		.loc 1 335 0
 731 0012 FFF7FEFF 		bl	ADC_1_Init
 732              	.LVL58:
 733              	.L39:
 337:Generated_Source\PSoC5/ADC_1.c ****     }
 734              		.loc 1 337 0
 735 0016 0122     		movs	r2, #1
 736 0018 024B     		ldr	r3, .L41
 737 001a 9A71     		strb	r2, [r3, #6]
 738              	.L38:
ARM GAS  C:\Users\karth\AppData\Local\Temp\ccX3KBuT.s 			page 46


 341:Generated_Source\PSoC5/ADC_1.c **** }
 739              		.loc 1 341 0
 740 001c FFF7FEFF 		bl	ADC_1_Enable
 741              	.LVL59:
 742 0020 08BD     		pop	{r3, pc}
 743              	.L42:
 744 0022 00BF     		.align	2
 745              	.L41:
 746 0024 00000000 		.word	.LANCHOR0
 747              		.cfi_endproc
 748              	.LFE2:
 749              		.size	ADC_1_Start, .-ADC_1_Start
 750              		.section	.text.ADC_1_Stop,"ax",%progbits
 751              		.align	2
 752              		.global	ADC_1_Stop
 753              		.thumb
 754              		.thumb_func
 755              		.type	ADC_1_Stop, %function
 756              	ADC_1_Stop:
 757              	.LFB3:
 363:Generated_Source\PSoC5/ADC_1.c ****     uint8 enableInterrupts;
 758              		.loc 1 363 0
 759              		.cfi_startproc
 760              		@ args = 0, pretend = 0, frame = 0
 761              		@ frame_needed = 0, uses_anonymous_args = 0
 762 0000 70B5     		push	{r4, r5, r6, lr}
 763              		.cfi_def_cfa_offset 16
 764              		.cfi_offset 4, -16
 765              		.cfi_offset 5, -12
 766              		.cfi_offset 6, -8
 767              		.cfi_offset 14, -4
 365:Generated_Source\PSoC5/ADC_1.c **** 
 768              		.loc 1 365 0
 769 0002 FFF7FEFF 		bl	CyEnterCriticalSection
 770              	.LVL60:
 771 0006 0646     		mov	r6, r0
 772              	.LVL61:
 368:Generated_Source\PSoC5/ADC_1.c ****     ADC_1_DEC_SR_REG |=  ADC_1_DEC_INTR_CLEAR;
 773              		.loc 1 368 0
 774 0008 314A     		ldr	r2, .L45
 775 000a 1378     		ldrb	r3, [r2]	@ zero_extendqisi2
 776 000c 03F0FE03 		and	r3, r3, #254
 777 0010 1370     		strb	r3, [r2]
 369:Generated_Source\PSoC5/ADC_1.c **** 
 778              		.loc 1 369 0
 779 0012 0132     		adds	r2, r2, #1
 780 0014 1378     		ldrb	r3, [r2]	@ zero_extendqisi2
 781 0016 43F00403 		orr	r3, r3, #4
 782 001a 1370     		strb	r3, [r2]
 373:Generated_Source\PSoC5/ADC_1.c ****     ADC_1_RESET_CR5_REG |= ADC_1_IGNORE_PRESA2;
 783              		.loc 1 373 0
 784 001c 2D4D     		ldr	r5, .L45+4
 785 001e 2B78     		ldrb	r3, [r5]	@ zero_extendqisi2
 786 0020 43F00203 		orr	r3, r3, #2
 787 0024 2B70     		strb	r3, [r5]
 374:Generated_Source\PSoC5/ADC_1.c **** 
 788              		.loc 1 374 0
ARM GAS  C:\Users\karth\AppData\Local\Temp\ccX3KBuT.s 			page 47


 789 0026 2C4C     		ldr	r4, .L45+8
 790 0028 2378     		ldrb	r3, [r4]	@ zero_extendqisi2
 791 002a 43F00203 		orr	r3, r3, #2
 792 002e 2370     		strb	r3, [r4]
 376:Generated_Source\PSoC5/ADC_1.c ****     ADC_1_DSM_REF0_REG &= (uint8)~ADC_1_DSM_EN_BUF_VREF_INN;
 793              		.loc 1 376 0
 794 0030 02F52962 		add	r2, r2, #2704
 795 0034 1378     		ldrb	r3, [r2]	@ zero_extendqisi2
 796 0036 03F0FC03 		and	r3, r3, #252
 797 003a 1370     		strb	r3, [r2]
 377:Generated_Source\PSoC5/ADC_1.c **** 
 798              		.loc 1 377 0
 799 003c 0132     		adds	r2, r2, #1
 800 003e 1378     		ldrb	r3, [r2]	@ zero_extendqisi2
 801 0040 03F0F703 		and	r3, r3, #247
 802 0044 1370     		strb	r3, [r2]
 380:Generated_Source\PSoC5/ADC_1.c **** 
 803              		.loc 1 380 0
 804 0046 0320     		movs	r0, #3
 805 0048 FFF7FEFF 		bl	CyDelayUs
 806              	.LVL62:
 383:Generated_Source\PSoC5/ADC_1.c ****     ADC_1_RESET_CR5_REG &= (uint8)~ADC_1_IGNORE_PRESA2;
 807              		.loc 1 383 0
 808 004c 2B78     		ldrb	r3, [r5]	@ zero_extendqisi2
 809 004e 03F0FD03 		and	r3, r3, #253
 810 0052 2B70     		strb	r3, [r5]
 384:Generated_Source\PSoC5/ADC_1.c **** 
 811              		.loc 1 384 0
 812 0054 2378     		ldrb	r3, [r4]	@ zero_extendqisi2
 813 0056 03F0FD03 		and	r3, r3, #253
 814 005a 2370     		strb	r3, [r4]
 387:Generated_Source\PSoC5/ADC_1.c **** 
 815              		.loc 1 387 0
 816 005c 1F4B     		ldr	r3, .L45+12
 817 005e 1A78     		ldrb	r2, [r3]	@ zero_extendqisi2
 818 0060 02F0EF02 		and	r2, r2, #239
 819 0064 1A70     		strb	r2, [r3]
 390:Generated_Source\PSoC5/ADC_1.c **** 
 820              		.loc 1 390 0
 821 0066 1A78     		ldrb	r2, [r3]	@ zero_extendqisi2
 822 0068 02F0FE02 		and	r2, r2, #254
 823 006c 1A70     		strb	r2, [r3]
 393:Generated_Source\PSoC5/ADC_1.c ****     ADC_1_STBY_PWRMGR_DSM_REG &= (uint8)~ADC_1_STBY_PWR_DSM_EN;
 824              		.loc 1 393 0
 825 006e 1033     		adds	r3, r3, #16
 826 0070 1A78     		ldrb	r2, [r3]	@ zero_extendqisi2
 827 0072 02F0FE02 		and	r2, r2, #254
 828 0076 1A70     		strb	r2, [r3]
 394:Generated_Source\PSoC5/ADC_1.c **** 
 829              		.loc 1 394 0
 830 0078 1A78     		ldrb	r2, [r3]	@ zero_extendqisi2
 831 007a 02F0EF02 		and	r2, r2, #239
 832 007e 1A70     		strb	r2, [r3]
 397:Generated_Source\PSoC5/ADC_1.c **** 
 833              		.loc 1 397 0
 834 0080 174A     		ldr	r2, .L45+16
 835 0082 1378     		ldrb	r3, [r2]	@ zero_extendqisi2
ARM GAS  C:\Users\karth\AppData\Local\Temp\ccX3KBuT.s 			page 48


 836 0084 03F0F903 		and	r3, r3, #249
 837 0088 1370     		strb	r3, [r2]
 401:Generated_Source\PSoC5/ADC_1.c ****         ADC_1_STBY_PWRMGR_CLK_REG &= (uint8)~ADC_1_STBY_PWR_CLK_EN;
 838              		.loc 1 401 0
 839 008a A2F5A652 		sub	r2, r2, #5312
 840 008e 163A     		subs	r2, r2, #22
 841 0090 1378     		ldrb	r3, [r2]	@ zero_extendqisi2
 842 0092 03F0FE03 		and	r3, r3, #254
 843 0096 1370     		strb	r3, [r2]
 402:Generated_Source\PSoC5/ADC_1.c ****     #endif /* ADC_1_DEFAULT_INTERNAL_CLK */
 844              		.loc 1 402 0
 845 0098 1032     		adds	r2, r2, #16
 846 009a 1378     		ldrb	r3, [r2]	@ zero_extendqisi2
 847 009c 03F0FE03 		and	r3, r3, #254
 848 00a0 1370     		strb	r3, [r2]
 406:Generated_Source\PSoC5/ADC_1.c ****     /* Disable power to charge pump clock */
 849              		.loc 1 406 0
 850 00a2 02F5A652 		add	r2, r2, #5312
 851 00a6 1132     		adds	r2, r2, #17
 852 00a8 1378     		ldrb	r3, [r2]	@ zero_extendqisi2
 853 00aa 03F0F703 		and	r3, r3, #247
 854 00ae 1370     		strb	r3, [r2]
 408:Generated_Source\PSoC5/ADC_1.c ****     ADC_1_STBY_PWRMGR_CHARGE_PUMP_CLK_REG &= (uint8)~ADC_1_STBY_PWR_CHARGE_PUMP_CLK_EN;
 855              		.loc 1 408 0
 856 00b0 A2F5A752 		sub	r2, r2, #5344
 857 00b4 1378     		ldrb	r3, [r2]	@ zero_extendqisi2
 858 00b6 03F0FE03 		and	r3, r3, #254
 859 00ba 1370     		strb	r3, [r2]
 409:Generated_Source\PSoC5/ADC_1.c ****     
 860              		.loc 1 409 0
 861 00bc 1032     		adds	r2, r2, #16
 862 00be 1378     		ldrb	r3, [r2]	@ zero_extendqisi2
 863 00c0 03F0FE03 		and	r3, r3, #254
 864 00c4 1370     		strb	r3, [r2]
 411:Generated_Source\PSoC5/ADC_1.c **** }
 865              		.loc 1 411 0
 866 00c6 3046     		mov	r0, r6
 867 00c8 FFF7FEFF 		bl	CyExitCriticalSection
 868              	.LVL63:
 869 00cc 70BD     		pop	{r4, r5, r6, pc}
 870              	.LVL64:
 871              	.L46:
 872 00ce 00BF     		.align	2
 873              	.L45:
 874 00d0 004E0040 		.word	1073761792
 875 00d4 F8460040 		.word	1073759992
 876 00d8 F9460040 		.word	1073759993
 877 00dc AA430040 		.word	1073759146
 878 00e0 77580040 		.word	1073764471
 879              		.cfi_endproc
 880              	.LFE3:
 881              		.size	ADC_1_Stop, .-ADC_1_Stop
 882              		.section	.text.ADC_1_SetBufferGain,"ax",%progbits
 883              		.align	2
 884              		.global	ADC_1_SetBufferGain
 885              		.thumb
 886              		.thumb_func
ARM GAS  C:\Users\karth\AppData\Local\Temp\ccX3KBuT.s 			page 49


 887              		.type	ADC_1_SetBufferGain, %function
 888              	ADC_1_SetBufferGain:
 889              	.LFB4:
 430:Generated_Source\PSoC5/ADC_1.c ****     uint8 tmpReg;
 890              		.loc 1 430 0
 891              		.cfi_startproc
 892              		@ args = 0, pretend = 0, frame = 0
 893              		@ frame_needed = 0, uses_anonymous_args = 0
 894              		@ link register save eliminated.
 895              	.LVL65:
 432:Generated_Source\PSoC5/ADC_1.c ****     tmpReg |= (uint8)(gain << ADC_1_DSM_GAIN_SHIFT) & ADC_1_DSM_GAIN_MASK;
 896              		.loc 1 432 0
 897 0000 044A     		ldr	r2, .L48
 898 0002 1378     		ldrb	r3, [r2]	@ zero_extendqisi2
 899 0004 03F0F303 		and	r3, r3, #243
 900              	.LVL66:
 433:Generated_Source\PSoC5/ADC_1.c ****     ADC_1_DSM_BUF1_REG = tmpReg;
 901              		.loc 1 433 0
 902 0008 8000     		lsls	r0, r0, #2
 903              	.LVL67:
 904 000a 00F00C00 		and	r0, r0, #12
 905 000e 1843     		orrs	r0, r0, r3
 906              	.LVL68:
 434:Generated_Source\PSoC5/ADC_1.c **** }
 907              		.loc 1 434 0
 908 0010 1070     		strb	r0, [r2]
 909 0012 7047     		bx	lr
 910              	.L49:
 911              		.align	2
 912              	.L48:
 913 0014 9B580040 		.word	1073764507
 914              		.cfi_endproc
 915              	.LFE4:
 916              		.size	ADC_1_SetBufferGain, .-ADC_1_SetBufferGain
 917              		.section	.text.ADC_1_SetCoherency,"ax",%progbits
 918              		.align	2
 919              		.global	ADC_1_SetCoherency
 920              		.thumb
 921              		.thumb_func
 922              		.type	ADC_1_SetCoherency, %function
 923              	ADC_1_SetCoherency:
 924              	.LFB5:
 466:Generated_Source\PSoC5/ADC_1.c ****     uint8 tmpReg;
 925              		.loc 1 466 0
 926              		.cfi_startproc
 927              		@ args = 0, pretend = 0, frame = 0
 928              		@ frame_needed = 0, uses_anonymous_args = 0
 929              		@ link register save eliminated.
 930              	.LVL69:
 469:Generated_Source\PSoC5/ADC_1.c ****     tmpReg |= coherency & ADC_1_DEC_SAMP_KEY_MASK;
 931              		.loc 1 469 0
 932 0000 044A     		ldr	r2, .L51
 933 0002 1378     		ldrb	r3, [r2]	@ zero_extendqisi2
 934 0004 03F0FC03 		and	r3, r3, #252
 935              	.LVL70:
 470:Generated_Source\PSoC5/ADC_1.c ****     ADC_1_DEC_COHER_REG = tmpReg;
 936              		.loc 1 470 0
ARM GAS  C:\Users\karth\AppData\Local\Temp\ccX3KBuT.s 			page 50


 937 0008 00F00300 		and	r0, r0, #3
 938              	.LVL71:
 939 000c 1843     		orrs	r0, r0, r3
 940              	.LVL72:
 471:Generated_Source\PSoC5/ADC_1.c **** }
 941              		.loc 1 471 0
 942 000e 1070     		strb	r0, [r2]
 943 0010 7047     		bx	lr
 944              	.L52:
 945 0012 00BF     		.align	2
 946              	.L51:
 947 0014 144E0040 		.word	1073761812
 948              		.cfi_endproc
 949              	.LFE5:
 950              		.size	ADC_1_SetCoherency, .-ADC_1_SetCoherency
 951              		.global	__aeabi_ui2f
 952              		.global	__aeabi_fmul
 953              		.global	__aeabi_f2d
 954              		.global	__aeabi_dcmpgt
 955              		.global	__aeabi_f2uiz
 956              		.section	.text.ADC_1_SetGCOR,"ax",%progbits
 957              		.align	2
 958              		.global	ADC_1_SetGCOR
 959              		.thumb
 960              		.thumb_func
 961              		.type	ADC_1_SetGCOR, %function
 962              	ADC_1_SetGCOR:
 963              	.LFB6:
 506:Generated_Source\PSoC5/ADC_1.c ****     uint16 tmpReg;
 964              		.loc 1 506 0
 965              		.cfi_startproc
 966              		@ args = 0, pretend = 0, frame = 0
 967              		@ frame_needed = 0, uses_anonymous_args = 0
 968              	.LVL73:
 969 0000 10B5     		push	{r4, lr}
 970              		.cfi_def_cfa_offset 8
 971              		.cfi_offset 4, -8
 972              		.cfi_offset 14, -4
 973 0002 0446     		mov	r4, r0
 511:Generated_Source\PSoC5/ADC_1.c ****     tmpValue = ((float32)tmpReg / (float32)ADC_1_IDEAL_GAIN_CONST);
 974              		.loc 1 511 0
 975 0004 184B     		ldr	r3, .L57+8
 976 0006 1B78     		ldrb	r3, [r3]	@ zero_extendqisi2
 977 0008 013B     		subs	r3, r3, #1
 978              	.LVL74:
 512:Generated_Source\PSoC5/ADC_1.c ****     tmpValue = tmpValue * gainAdjust;
 979              		.loc 1 512 0
 980 000a 184A     		ldr	r2, .L57+12
 981 000c 32F82300 		ldrh	r0, [r2, r3, lsl #2]
 982              	.LVL75:
 983 0010 FFF7FEFF 		bl	__aeabi_ui2f
 984              	.LVL76:
 985 0014 4FF06051 		mov	r1, #939524096
 986 0018 FFF7FEFF 		bl	__aeabi_fmul
 987              	.LVL77:
 513:Generated_Source\PSoC5/ADC_1.c **** 
 988              		.loc 1 513 0
ARM GAS  C:\Users\karth\AppData\Local\Temp\ccX3KBuT.s 			page 51


 989 001c 2146     		mov	r1, r4
 990 001e FFF7FEFF 		bl	__aeabi_fmul
 991              	.LVL78:
 992 0022 0446     		mov	r4, r0
 993              	.LVL79:
 515:Generated_Source\PSoC5/ADC_1.c ****     {
 994              		.loc 1 515 0
 995 0024 FFF7FEFF 		bl	__aeabi_f2d
 996              	.LVL80:
 997 0028 0DA3     		adr	r3, .L57
 998 002a D3E90023 		ldrd	r2, [r3]
 999 002e FFF7FEFF 		bl	__aeabi_dcmpgt
 1000              	.LVL81:
 1001 0032 88B9     		cbnz	r0, .L55
 521:Generated_Source\PSoC5/ADC_1.c **** 		tmpReg = (uint16)tmpValue;
 1002              		.loc 1 521 0
 1003 0034 4FF08E41 		mov	r1, #1191182336
 1004 0038 2046     		mov	r0, r4
 1005 003a FFF7FEFF 		bl	__aeabi_fmul
 1006              	.LVL82:
 522:Generated_Source\PSoC5/ADC_1.c ****         CY_SET_REG16(ADC_1_DEC_GCOR_16B_PTR, tmpReg);
 1007              		.loc 1 522 0
 1008 003e FFF7FEFF 		bl	__aeabi_f2uiz
 1009              	.LVL83:
 1010 0042 80B2     		uxth	r0, r0
 1011              	.LVL84:
 523:Generated_Source\PSoC5/ADC_1.c ****         /* Update gain array to be used by SelectConfiguration() API */
 1012              		.loc 1 523 0
 1013 0044 0A4B     		ldr	r3, .L57+16
 1014 0046 1880     		strh	r0, [r3]	@ movhi
 525:Generated_Source\PSoC5/ADC_1.c **** 
 1015              		.loc 1 525 0
 1016 0048 074B     		ldr	r3, .L57+8
 1017 004a 1B78     		ldrb	r3, [r3]	@ zero_extendqisi2
 1018 004c 013B     		subs	r3, r3, #1
 1019 004e 074A     		ldr	r2, .L57+12
 1020 0050 22F82300 		strh	r0, [r2, r3, lsl #2]	@ movhi
 1021              	.LVL85:
 527:Generated_Source\PSoC5/ADC_1.c **** 
 1022              		.loc 1 527 0
 1023 0054 0020     		movs	r0, #0
 1024              	.LVL86:
 1025 0056 10BD     		pop	{r4, pc}
 1026              	.LVL87:
 1027              	.L55:
 517:Generated_Source\PSoC5/ADC_1.c ****     }
 1028              		.loc 1 517 0
 1029 0058 0120     		movs	r0, #1
 1030              	.LVL88:
 531:Generated_Source\PSoC5/ADC_1.c **** 
 1031              		.loc 1 531 0
 1032 005a 10BD     		pop	{r4, pc}
 1033              	.LVL89:
 1034              	.L58:
 1035 005c AFF30080 		.align	3
 1036              	.L57:
 1037 0060 8F537424 		.word	611603343
ARM GAS  C:\Users\karth\AppData\Local\Temp\ccX3KBuT.s 			page 52


 1038 0064 97FFFF3F 		.word	1073741719
 1039 0068 00000000 		.word	.LANCHOR1
 1040 006c 00000000 		.word	.LANCHOR0
 1041 0070 0C4E0040 		.word	1073761804
 1042              		.cfi_endproc
 1043              	.LFE6:
 1044              		.size	ADC_1_SetGCOR, .-ADC_1_SetGCOR
 1045              		.section	.text.ADC_1_ReadGCOR,"ax",%progbits
 1046              		.align	2
 1047              		.global	ADC_1_ReadGCOR
 1048              		.thumb
 1049              		.thumb_func
 1050              		.type	ADC_1_ReadGCOR, %function
 1051              	ADC_1_ReadGCOR:
 1052              	.LFB7:
 553:Generated_Source\PSoC5/ADC_1.c ****     uint8 gValue;
 1053              		.loc 1 553 0
 1054              		.cfi_startproc
 1055              		@ args = 0, pretend = 0, frame = 0
 1056              		@ frame_needed = 0, uses_anonymous_args = 0
 1057              		@ link register save eliminated.
 557:Generated_Source\PSoC5/ADC_1.c ****     gcorValue = CY_GET_REG16(ADC_1_DEC_GCOR_16B_PTR);
 1058              		.loc 1 557 0
 1059 0000 064B     		ldr	r3, .L61
 1060 0002 1B78     		ldrb	r3, [r3]	@ zero_extendqisi2
 1061 0004 DBB2     		uxtb	r3, r3
 1062              	.LVL90:
 558:Generated_Source\PSoC5/ADC_1.c **** 
 1063              		.loc 1 558 0
 1064 0006 064A     		ldr	r2, .L61+4
 1065 0008 1088     		ldrh	r0, [r2]
 1066 000a 80B2     		uxth	r0, r0
 1067              	.LVL91:
 560:Generated_Source\PSoC5/ADC_1.c ****     {
 1068              		.loc 1 560 0
 1069 000c 0E2B     		cmp	r3, #14
 1070 000e 03D8     		bhi	.L60
 562:Generated_Source\PSoC5/ADC_1.c ****     }
 1071              		.loc 1 562 0
 1072 0010 C3F10F03 		rsb	r3, r3, #15
 1073              	.LVL92:
 1074 0014 9840     		lsls	r0, r0, r3
 1075              	.LVL93:
 1076 0016 80B2     		uxth	r0, r0
 1077              	.LVL94:
 1078              	.L60:
 566:Generated_Source\PSoC5/ADC_1.c **** 
 1079              		.loc 1 566 0
 1080 0018 7047     		bx	lr
 1081              	.L62:
 1082 001a 00BF     		.align	2
 1083              	.L61:
 1084 001c 0E4E0040 		.word	1073761806
 1085 0020 0C4E0040 		.word	1073761804
 1086              		.cfi_endproc
 1087              	.LFE7:
 1088              		.size	ADC_1_ReadGCOR, .-ADC_1_ReadGCOR
ARM GAS  C:\Users\karth\AppData\Local\Temp\ccX3KBuT.s 			page 53


 1089              		.section	.text.ADC_1_StartConvert,"ax",%progbits
 1090              		.align	2
 1091              		.global	ADC_1_StartConvert
 1092              		.thumb
 1093              		.thumb_func
 1094              		.type	ADC_1_StartConvert, %function
 1095              	ADC_1_StartConvert:
 1096              	.LFB8:
 587:Generated_Source\PSoC5/ADC_1.c ****     /* Start the conversion */
 1097              		.loc 1 587 0
 1098              		.cfi_startproc
 1099              		@ args = 0, pretend = 0, frame = 0
 1100              		@ frame_needed = 0, uses_anonymous_args = 0
 1101              		@ link register save eliminated.
 589:Generated_Source\PSoC5/ADC_1.c **** }
 1102              		.loc 1 589 0
 1103 0000 024A     		ldr	r2, .L64
 1104 0002 1378     		ldrb	r3, [r2]	@ zero_extendqisi2
 1105 0004 43F00103 		orr	r3, r3, #1
 1106 0008 1370     		strb	r3, [r2]
 1107 000a 7047     		bx	lr
 1108              	.L65:
 1109              		.align	2
 1110              	.L64:
 1111 000c 004E0040 		.word	1073761792
 1112              		.cfi_endproc
 1113              	.LFE8:
 1114              		.size	ADC_1_StartConvert, .-ADC_1_StartConvert
 1115              		.section	.text.ADC_1_StopConvert,"ax",%progbits
 1116              		.align	2
 1117              		.global	ADC_1_StopConvert
 1118              		.thumb
 1119              		.thumb_func
 1120              		.type	ADC_1_StopConvert, %function
 1121              	ADC_1_StopConvert:
 1122              	.LFB9:
 610:Generated_Source\PSoC5/ADC_1.c ****     /* Stop all conversions */
 1123              		.loc 1 610 0
 1124              		.cfi_startproc
 1125              		@ args = 0, pretend = 0, frame = 0
 1126              		@ frame_needed = 0, uses_anonymous_args = 0
 1127              		@ link register save eliminated.
 612:Generated_Source\PSoC5/ADC_1.c **** }
 1128              		.loc 1 612 0
 1129 0000 024A     		ldr	r2, .L67
 1130 0002 1378     		ldrb	r3, [r2]	@ zero_extendqisi2
 1131 0004 03F0FE03 		and	r3, r3, #254
 1132 0008 1370     		strb	r3, [r2]
 1133 000a 7047     		bx	lr
 1134              	.L68:
 1135              		.align	2
 1136              	.L67:
 1137 000c 004E0040 		.word	1073761792
 1138              		.cfi_endproc
 1139              	.LFE9:
 1140              		.size	ADC_1_StopConvert, .-ADC_1_StopConvert
 1141              		.section	.text.ADC_1_IsEndConversion,"ax",%progbits
ARM GAS  C:\Users\karth\AppData\Local\Temp\ccX3KBuT.s 			page 54


 1142              		.align	2
 1143              		.global	ADC_1_IsEndConversion
 1144              		.thumb
 1145              		.thumb_func
 1146              		.type	ADC_1_IsEndConversion, %function
 1147              	ADC_1_IsEndConversion:
 1148              	.LFB10:
 645:Generated_Source\PSoC5/ADC_1.c ****     uint8 status;
 1149              		.loc 1 645 0
 1150              		.cfi_startproc
 1151              		@ args = 0, pretend = 0, frame = 0
 1152              		@ frame_needed = 0, uses_anonymous_args = 0
 1153              		@ link register save eliminated.
 1154              	.LVL95:
 1155              	.L73:
 653:Generated_Source\PSoC5/ADC_1.c ****         {
 1156              		.loc 1 653 0
 1157 0000 094B     		ldr	r3, .L74
 1158 0002 1B79     		ldrb	r3, [r3, #4]	@ zero_extendqisi2
 1159 0004 13F0FF0F 		tst	r3, #255
 1160 0008 03D0     		beq	.L70
 655:Generated_Source\PSoC5/ADC_1.c ****         }
 1161              		.loc 1 655 0
 1162 000a 074B     		ldr	r3, .L74
 1163 000c 5B79     		ldrb	r3, [r3, #5]	@ zero_extendqisi2
 1164 000e DBB2     		uxtb	r3, r3
 1165              	.LVL96:
 1166 0010 03E0     		b	.L71
 1167              	.LVL97:
 1168              	.L70:
 659:Generated_Source\PSoC5/ADC_1.c ****         }
 1169              		.loc 1 659 0
 1170 0012 064B     		ldr	r3, .L74+4
 1171 0014 1B78     		ldrb	r3, [r3]	@ zero_extendqisi2
 1172 0016 03F00103 		and	r3, r3, #1
 1173              	.LVL98:
 1174              	.L71:
 661:Generated_Source\PSoC5/ADC_1.c **** 
 1175              		.loc 1 661 0
 1176 001a 012B     		cmp	r3, #1
 1177 001c 01D0     		beq	.L72
 661:Generated_Source\PSoC5/ADC_1.c **** 
 1178              		.loc 1 661 0 is_stmt 0 discriminator 1
 1179 001e 0028     		cmp	r0, #0
 1180 0020 EED0     		beq	.L73
 1181              	.L72:
 664:Generated_Source\PSoC5/ADC_1.c **** 
 1182              		.loc 1 664 0 is_stmt 1
 1183 0022 1846     		mov	r0, r3
 1184              	.LVL99:
 1185 0024 7047     		bx	lr
 1186              	.L75:
 1187 0026 00BF     		.align	2
 1188              	.L74:
 1189 0028 00000000 		.word	.LANCHOR0
 1190 002c 014E0040 		.word	1073761793
 1191              		.cfi_endproc
ARM GAS  C:\Users\karth\AppData\Local\Temp\ccX3KBuT.s 			page 55


 1192              	.LFE10:
 1193              		.size	ADC_1_IsEndConversion, .-ADC_1_IsEndConversion
 1194              		.section	.text.ADC_1_GetResult8,"ax",%progbits
 1195              		.align	2
 1196              		.global	ADC_1_GetResult8
 1197              		.thumb
 1198              		.thumb_func
 1199              		.type	ADC_1_GetResult8, %function
 1200              	ADC_1_GetResult8:
 1201              	.LFB11:
 692:Generated_Source\PSoC5/ADC_1.c ****     int8 result;
 1202              		.loc 1 692 0
 1203              		.cfi_startproc
 1204              		@ args = 0, pretend = 0, frame = 0
 1205              		@ frame_needed = 0, uses_anonymous_args = 0
 1206              		@ link register save eliminated.
 697:Generated_Source\PSoC5/ADC_1.c **** 
 1207              		.loc 1 697 0
 1208 0000 0C4B     		ldr	r3, .L80
 1209 0002 1B78     		ldrb	r3, [r3]	@ zero_extendqisi2
 1210 0004 03F00303 		and	r3, r3, #3
 1211              	.LVL100:
 699:Generated_Source\PSoC5/ADC_1.c **** 
 1212              		.loc 1 699 0
 1213 0008 0B4A     		ldr	r2, .L80+4
 1214 000a 1078     		ldrb	r0, [r2]	@ zero_extendqisi2
 1215 000c 40B2     		sxtb	r0, r0
 1216              	.LVL101:
 701:Generated_Source\PSoC5/ADC_1.c ****     {   /* Dummy read of the middle byte to unlock the coherency */
 1217              		.loc 1 701 0
 1218 000e 022B     		cmp	r3, #2
 1219 0010 02D1     		bne	.L77
 703:Generated_Source\PSoC5/ADC_1.c ****     }
 1220              		.loc 1 703 0
 1221 0012 0A4B     		ldr	r3, .L80+8
 1222              	.LVL102:
 1223 0014 1B78     		ldrb	r3, [r3]	@ zero_extendqisi2
 1224 0016 03E0     		b	.L78
 1225              	.LVL103:
 1226              	.L77:
 705:Generated_Source\PSoC5/ADC_1.c ****     {   /* Dummy read of the MSB byte to unlock the coherency */
 1227              		.loc 1 705 0
 1228 0018 032B     		cmp	r3, #3
 1229 001a 01D1     		bne	.L78
 707:Generated_Source\PSoC5/ADC_1.c ****     }
 1230              		.loc 1 707 0
 1231 001c 084B     		ldr	r3, .L80+12
 1232              	.LVL104:
 1233 001e 1B78     		ldrb	r3, [r3]	@ zero_extendqisi2
 1234              	.L78:
 713:Generated_Source\PSoC5/ADC_1.c ****     {
 1235              		.loc 1 713 0
 1236 0020 084B     		ldr	r3, .L80+16
 1237 0022 1B79     		ldrb	r3, [r3, #4]	@ zero_extendqisi2
 1238 0024 13F0FF0F 		tst	r3, #255
 1239 0028 02D0     		beq	.L79
 715:Generated_Source\PSoC5/ADC_1.c ****     }
ARM GAS  C:\Users\karth\AppData\Local\Temp\ccX3KBuT.s 			page 56


 1240              		.loc 1 715 0
 1241 002a 0022     		movs	r2, #0
 1242 002c 054B     		ldr	r3, .L80+16
 1243 002e 5A71     		strb	r2, [r3, #5]
 1244              	.L79:
 718:Generated_Source\PSoC5/ADC_1.c **** 
 1245              		.loc 1 718 0
 1246 0030 7047     		bx	lr
 1247              	.L81:
 1248 0032 00BF     		.align	2
 1249              	.L80:
 1250 0034 144E0040 		.word	1073761812
 1251 0038 104E0040 		.word	1073761808
 1252 003c 114E0040 		.word	1073761809
 1253 0040 124E0040 		.word	1073761810
 1254 0044 00000000 		.word	.LANCHOR0
 1255              		.cfi_endproc
 1256              	.LFE11:
 1257              		.size	ADC_1_GetResult8, .-ADC_1_GetResult8
 1258              		.section	.text.ADC_1_GetResult16,"ax",%progbits
 1259              		.align	2
 1260              		.global	ADC_1_GetResult16
 1261              		.thumb
 1262              		.thumb_func
 1263              		.type	ADC_1_GetResult16, %function
 1264              	ADC_1_GetResult16:
 1265              	.LFB12:
 746:Generated_Source\PSoC5/ADC_1.c ****     uint16 result;
 1266              		.loc 1 746 0
 1267              		.cfi_startproc
 1268              		@ args = 0, pretend = 0, frame = 0
 1269              		@ frame_needed = 0, uses_anonymous_args = 0
 1270              		@ link register save eliminated.
 751:Generated_Source\PSoC5/ADC_1.c **** 
 1271              		.loc 1 751 0
 1272 0000 0E4B     		ldr	r3, .L86
 1273 0002 1B78     		ldrb	r3, [r3]	@ zero_extendqisi2
 1274 0004 03F00303 		and	r3, r3, #3
 1275              	.LVL105:
 753:Generated_Source\PSoC5/ADC_1.c ****     {   /*  Use default method to read result registers i.e. LSB byte read at the end*/
 1276              		.loc 1 753 0
 1277 0008 012B     		cmp	r3, #1
 1278 000a 03D8     		bhi	.L83
 759:Generated_Source\PSoC5/ADC_1.c ****         #endif /* CY_PSOC3 */
 1279              		.loc 1 759 0
 1280 000c 0C4B     		ldr	r3, .L86+4
 1281              	.LVL106:
 1282 000e 1888     		ldrh	r0, [r3]
 1283 0010 80B2     		uxth	r0, r0
 1284              	.LVL107:
 1285 0012 09E0     		b	.L84
 1286              	.LVL108:
 1287              	.L83:
 767:Generated_Source\PSoC5/ADC_1.c ****             result |=  (uint16)((uint16)ADC_1_DEC_SAMPM_REG << 8u);
 1288              		.loc 1 767 0
 1289 0014 0A4A     		ldr	r2, .L86+4
 1290 0016 1278     		ldrb	r2, [r2]	@ zero_extendqisi2
ARM GAS  C:\Users\karth\AppData\Local\Temp\ccX3KBuT.s 			page 57


 1291              	.LVL109:
 768:Generated_Source\PSoC5/ADC_1.c ****         #endif /* CY_PSOC3 */
 1292              		.loc 1 768 0
 1293 0018 0A49     		ldr	r1, .L86+8
 1294 001a 0878     		ldrb	r0, [r1]	@ zero_extendqisi2
 1295 001c 42EA0020 		orr	r0, r2, r0, lsl #8
 1296              	.LVL110:
 770:Generated_Source\PSoC5/ADC_1.c ****         {   /* Dummy read of the MSB byte to unlock the coherency */
 1297              		.loc 1 770 0
 1298 0020 032B     		cmp	r3, #3
 1299 0022 01D1     		bne	.L84
 772:Generated_Source\PSoC5/ADC_1.c ****         }
 1300              		.loc 1 772 0
 1301 0024 084B     		ldr	r3, .L86+12
 1302              	.LVL111:
 1303 0026 1B78     		ldrb	r3, [r3]	@ zero_extendqisi2
 1304              	.L84:
 776:Generated_Source\PSoC5/ADC_1.c ****     {
 1305              		.loc 1 776 0
 1306 0028 084B     		ldr	r3, .L86+16
 1307 002a 1B79     		ldrb	r3, [r3, #4]	@ zero_extendqisi2
 1308 002c 13F0FF0F 		tst	r3, #255
 1309 0030 02D0     		beq	.L85
 778:Generated_Source\PSoC5/ADC_1.c ****     }
 1310              		.loc 1 778 0
 1311 0032 0022     		movs	r2, #0
 1312 0034 054B     		ldr	r3, .L86+16
 1313 0036 5A71     		strb	r2, [r3, #5]
 1314              	.L85:
 782:Generated_Source\PSoC5/ADC_1.c **** 
 1315              		.loc 1 782 0
 1316 0038 00B2     		sxth	r0, r0
 1317 003a 7047     		bx	lr
 1318              	.L87:
 1319              		.align	2
 1320              	.L86:
 1321 003c 144E0040 		.word	1073761812
 1322 0040 104E0040 		.word	1073761808
 1323 0044 114E0040 		.word	1073761809
 1324 0048 124E0040 		.word	1073761810
 1325 004c 00000000 		.word	.LANCHOR0
 1326              		.cfi_endproc
 1327              	.LFE12:
 1328              		.size	ADC_1_GetResult16, .-ADC_1_GetResult16
 1329              		.section	.text.ADC_1_GetResult32,"ax",%progbits
 1330              		.align	2
 1331              		.global	ADC_1_GetResult32
 1332              		.thumb
 1333              		.thumb_func
 1334              		.type	ADC_1_GetResult32, %function
 1335              	ADC_1_GetResult32:
 1336              	.LFB13:
 806:Generated_Source\PSoC5/ADC_1.c ****     uint32 result;
 1337              		.loc 1 806 0
 1338              		.cfi_startproc
 1339              		@ args = 0, pretend = 0, frame = 0
 1340              		@ frame_needed = 0, uses_anonymous_args = 0
ARM GAS  C:\Users\karth\AppData\Local\Temp\ccX3KBuT.s 			page 58


 1341              		@ link register save eliminated.
 814:Generated_Source\PSoC5/ADC_1.c **** 
 1342              		.loc 1 814 0
 1343 0000 154B     		ldr	r3, .L93
 1344 0002 1B78     		ldrb	r3, [r3]	@ zero_extendqisi2
 1345 0004 03F00303 		and	r3, r3, #3
 1346              	.LVL112:
 816:Generated_Source\PSoC5/ADC_1.c ****     {   /*  Use default method to read result registers i.e. LSB byte read at the end*/
 1347              		.loc 1 816 0
 1348 0008 012B     		cmp	r3, #1
 1349 000a 07D8     		bhi	.L89
 827:Generated_Source\PSoC5/ADC_1.c ****             result = (result << 16u) | (CY_GET_REG16(ADC_1_DEC_SAMP_16B_PTR));
 1350              		.loc 1 827 0
 1351 000c 134B     		ldr	r3, .L93+4
 1352              	.LVL113:
 1353 000e 1888     		ldrh	r0, [r3]
 1354              	.LVL114:
 828:Generated_Source\PSoC5/ADC_1.c ****         #endif /* CY_PSOC3 */
 1355              		.loc 1 828 0
 1356 0010 023B     		subs	r3, r3, #2
 1357 0012 1B88     		ldrh	r3, [r3]
 1358 0014 9BB2     		uxth	r3, r3
 1359 0016 43EA0040 		orr	r0, r3, r0, lsl #16
 1360              	.LVL115:
 1361 001a 13E0     		b	.L90
 1362              	.LVL116:
 1363              	.L89:
 831:Generated_Source\PSoC5/ADC_1.c ****     {   /* Read middle byte at the end */
 1364              		.loc 1 831 0
 1365 001c 022B     		cmp	r3, #2
 1366 001e 0AD1     		bne	.L91
 841:Generated_Source\PSoC5/ADC_1.c ****             result = (result << 16u) | ADC_1_DEC_SAMP_REG;
 1367              		.loc 1 841 0
 1368 0020 0E4B     		ldr	r3, .L93+4
 1369              	.LVL117:
 1370 0022 1888     		ldrh	r0, [r3]
 1371              	.LVL118:
 842:Generated_Source\PSoC5/ADC_1.c ****             result |=  (uint32)((uint32)ADC_1_DEC_SAMPM_REG << 8u);
 1372              		.loc 1 842 0
 1373 0024 023B     		subs	r3, r3, #2
 1374 0026 1B78     		ldrb	r3, [r3]	@ zero_extendqisi2
 1375 0028 43EA0043 		orr	r3, r3, r0, lsl #16
 1376              	.LVL119:
 843:Generated_Source\PSoC5/ADC_1.c ****         #endif /* CY_PSOC3 */
 1377              		.loc 1 843 0
 1378 002c 0C4A     		ldr	r2, .L93+8
 1379 002e 1078     		ldrb	r0, [r2]	@ zero_extendqisi2
 1380 0030 43EA0020 		orr	r0, r3, r0, lsl #8
 1381              	.LVL120:
 1382 0034 06E0     		b	.L90
 1383              	.LVL121:
 1384              	.L91:
 858:Generated_Source\PSoC5/ADC_1.c ****             result |= (uint32)((uint32)CY_GET_REG16(ADC_1_DEC_SAMPH_16B_PTR) << 16u);
 1385              		.loc 1 858 0
 1386 0036 0B4B     		ldr	r3, .L93+12
 1387              	.LVL122:
 1388 0038 1888     		ldrh	r0, [r3]
ARM GAS  C:\Users\karth\AppData\Local\Temp\ccX3KBuT.s 			page 59


 1389 003a 83B2     		uxth	r3, r0
 1390              	.LVL123:
 859:Generated_Source\PSoC5/ADC_1.c ****         #endif /* CY_PSOC3 */
 1391              		.loc 1 859 0
 1392 003c 074A     		ldr	r2, .L93+4
 1393 003e 1088     		ldrh	r0, [r2]
 1394 0040 43EA0040 		orr	r0, r3, r0, lsl #16
 1395              	.LVL124:
 1396              	.L90:
 863:Generated_Source\PSoC5/ADC_1.c ****     {
 1397              		.loc 1 863 0
 1398 0044 084B     		ldr	r3, .L93+16
 1399 0046 1B79     		ldrb	r3, [r3, #4]	@ zero_extendqisi2
 1400 0048 13F0FF0F 		tst	r3, #255
 1401 004c 02D0     		beq	.L92
 865:Generated_Source\PSoC5/ADC_1.c ****     }
 1402              		.loc 1 865 0
 1403 004e 0022     		movs	r2, #0
 1404 0050 054B     		ldr	r3, .L93+16
 1405 0052 5A71     		strb	r2, [r3, #5]
 1406              	.L92:
 869:Generated_Source\PSoC5/ADC_1.c **** 
 1407              		.loc 1 869 0
 1408 0054 7047     		bx	lr
 1409              	.L94:
 1410 0056 00BF     		.align	2
 1411              	.L93:
 1412 0058 144E0040 		.word	1073761812
 1413 005c 124E0040 		.word	1073761810
 1414 0060 114E0040 		.word	1073761809
 1415 0064 104E0040 		.word	1073761808
 1416 0068 00000000 		.word	.LANCHOR0
 1417              		.cfi_endproc
 1418              	.LFE13:
 1419              		.size	ADC_1_GetResult32, .-ADC_1_GetResult32
 1420              		.section	.text.ADC_1_SetOffset,"ax",%progbits
 1421              		.align	2
 1422              		.global	ADC_1_SetOffset
 1423              		.thumb
 1424              		.thumb_func
 1425              		.type	ADC_1_SetOffset, %function
 1426              	ADC_1_SetOffset:
 1427              	.LFB14:
 899:Generated_Source\PSoC5/ADC_1.c **** 
 1428              		.loc 1 899 0
 1429              		.cfi_startproc
 1430              		@ args = 0, pretend = 0, frame = 0
 1431              		@ frame_needed = 0, uses_anonymous_args = 0
 1432              		@ link register save eliminated.
 1433              	.LVL125:
 901:Generated_Source\PSoC5/ADC_1.c **** }
 1434              		.loc 1 901 0
 1435 0000 014B     		ldr	r3, .L96
 1436 0002 1860     		str	r0, [r3]
 1437 0004 7047     		bx	lr
 1438              	.L97:
 1439 0006 00BF     		.align	2
ARM GAS  C:\Users\karth\AppData\Local\Temp\ccX3KBuT.s 			page 60


 1440              	.L96:
 1441 0008 00000000 		.word	ADC_1_Offset
 1442              		.cfi_endproc
 1443              	.LFE14:
 1444              		.size	ADC_1_SetOffset, .-ADC_1_SetOffset
 1445              		.section	.text.ADC_1_SetGain,"ax",%progbits
 1446              		.align	2
 1447              		.global	ADC_1_SetGain
 1448              		.thumb
 1449              		.thumb_func
 1450              		.type	ADC_1_SetGain, %function
 1451              	ADC_1_SetGain:
 1452              	.LFB15:
 934:Generated_Source\PSoC5/ADC_1.c ****     ADC_1_CountsPerVolt = adcGain;
 1453              		.loc 1 934 0
 1454              		.cfi_startproc
 1455              		@ args = 0, pretend = 0, frame = 0
 1456              		@ frame_needed = 0, uses_anonymous_args = 0
 1457              		@ link register save eliminated.
 1458              	.LVL126:
 935:Generated_Source\PSoC5/ADC_1.c **** }
 1459              		.loc 1 935 0
 1460 0000 014B     		ldr	r3, .L99
 1461 0002 1860     		str	r0, [r3]
 1462 0004 7047     		bx	lr
 1463              	.L100:
 1464 0006 00BF     		.align	2
 1465              	.L99:
 1466 0008 00000000 		.word	ADC_1_CountsPerVolt
 1467              		.cfi_endproc
 1468              	.LFE15:
 1469              		.size	ADC_1_SetGain, .-ADC_1_SetGain
 1470              		.section	.text.ADC_1_CountsTo_mVolts,"ax",%progbits
 1471              		.align	2
 1472              		.global	ADC_1_CountsTo_mVolts
 1473              		.thumb
 1474              		.thumb_func
 1475              		.type	ADC_1_CountsTo_mVolts, %function
 1476              	ADC_1_CountsTo_mVolts:
 1477              	.LFB16:
 961:Generated_Source\PSoC5/ADC_1.c **** 
 1478              		.loc 1 961 0
 1479              		.cfi_startproc
 1480              		@ args = 0, pretend = 0, frame = 0
 1481              		@ frame_needed = 0, uses_anonymous_args = 0
 1482              		@ link register save eliminated.
 1483              	.LVL127:
 967:Generated_Source\PSoC5/ADC_1.c ****         {
 1484              		.loc 1 967 0
 1485 0000 0B4B     		ldr	r3, .L104
 1486 0002 1B78     		ldrb	r3, [r3]	@ zero_extendqisi2
 1487 0004 DBB2     		uxtb	r3, r3
 1488 0006 012B     		cmp	r3, #1
 1489 0008 04D1     		bne	.L102
 969:Generated_Source\PSoC5/ADC_1.c ****         }
 1490              		.loc 1 969 0
 1491 000a 0346     		mov	r3, r0
ARM GAS  C:\Users\karth\AppData\Local\Temp\ccX3KBuT.s 			page 61


 1492 000c 0028     		cmp	r0, #0
 1493 000e 00DA     		bge	.L103
 1494 0010 C31D     		adds	r3, r0, #7
 1495              	.L103:
 1496 0012 D810     		asrs	r0, r3, #3
 1497              	.LVL128:
 1498              	.L102:
 992:Generated_Source\PSoC5/ADC_1.c **** 
 1499              		.loc 1 992 0
 1500 0014 074B     		ldr	r3, .L104+4
 1501 0016 1B68     		ldr	r3, [r3]
 1502 0018 C01A     		subs	r0, r0, r3
 1503              	.LVL129:
 994:Generated_Source\PSoC5/ADC_1.c **** 
 1504              		.loc 1 994 0
 1505 001a 4FF47A73 		mov	r3, #1000
 1506 001e 03FB00F0 		mul	r0, r3, r0
 1507              	.LVL130:
 1508 0022 054B     		ldr	r3, .L104+8
 1509 0024 1B68     		ldr	r3, [r3]
 1510 0026 90FBF3F0 		sdiv	r0, r0, r3
 1511              	.LVL131:
 997:Generated_Source\PSoC5/ADC_1.c **** 
 1512              		.loc 1 997 0
 1513 002a 00B2     		sxth	r0, r0
 1514 002c 7047     		bx	lr
 1515              	.L105:
 1516 002e 00BF     		.align	2
 1517              	.L104:
 1518 0030 00000000 		.word	.LANCHOR1
 1519 0034 00000000 		.word	ADC_1_Offset
 1520 0038 00000000 		.word	ADC_1_CountsPerVolt
 1521              		.cfi_endproc
 1522              	.LFE16:
 1523              		.size	ADC_1_CountsTo_mVolts, .-ADC_1_CountsTo_mVolts
 1524              		.global	__aeabi_i2f
 1525              		.global	__aeabi_fdiv
 1526              		.section	.text.ADC_1_CountsTo_Volts,"ax",%progbits
 1527              		.align	2
 1528              		.global	ADC_1_CountsTo_Volts
 1529              		.thumb
 1530              		.thumb_func
 1531              		.type	ADC_1_CountsTo_Volts, %function
 1532              	ADC_1_CountsTo_Volts:
 1533              	.LFB17:
1022:Generated_Source\PSoC5/ADC_1.c **** 
 1534              		.loc 1 1022 0
 1535              		.cfi_startproc
 1536              		@ args = 0, pretend = 0, frame = 0
 1537              		@ frame_needed = 0, uses_anonymous_args = 0
 1538              	.LVL132:
 1539 0000 10B5     		push	{r4, lr}
 1540              		.cfi_def_cfa_offset 8
 1541              		.cfi_offset 4, -8
 1542              		.cfi_offset 14, -4
1028:Generated_Source\PSoC5/ADC_1.c ****         {
 1543              		.loc 1 1028 0
ARM GAS  C:\Users\karth\AppData\Local\Temp\ccX3KBuT.s 			page 62


 1544 0002 0C4B     		ldr	r3, .L110
 1545 0004 1B78     		ldrb	r3, [r3]	@ zero_extendqisi2
 1546 0006 DBB2     		uxtb	r3, r3
 1547 0008 012B     		cmp	r3, #1
 1548 000a 04D1     		bne	.L107
1030:Generated_Source\PSoC5/ADC_1.c ****         }
 1549              		.loc 1 1030 0
 1550 000c 0346     		mov	r3, r0
 1551 000e 0028     		cmp	r0, #0
 1552 0010 00DA     		bge	.L108
 1553 0012 C31D     		adds	r3, r0, #7
 1554              	.L108:
 1555 0014 D810     		asrs	r0, r3, #3
 1556              	.LVL133:
 1557              	.L107:
1053:Generated_Source\PSoC5/ADC_1.c **** 
 1558              		.loc 1 1053 0
 1559 0016 084B     		ldr	r3, .L110+4
 1560 0018 1B68     		ldr	r3, [r3]
 1561              	.LVL134:
1055:Generated_Source\PSoC5/ADC_1.c **** 
 1562              		.loc 1 1055 0
 1563 001a C01A     		subs	r0, r0, r3
 1564              	.LVL135:
 1565 001c FFF7FEFF 		bl	__aeabi_i2f
 1566              	.LVL136:
 1567 0020 0446     		mov	r4, r0
 1568 0022 064B     		ldr	r3, .L110+8
 1569 0024 1868     		ldr	r0, [r3]
 1570 0026 FFF7FEFF 		bl	__aeabi_i2f
 1571              	.LVL137:
 1572 002a 0146     		mov	r1, r0
 1573 002c 2046     		mov	r0, r4
 1574 002e FFF7FEFF 		bl	__aeabi_fdiv
 1575              	.LVL138:
1058:Generated_Source\PSoC5/ADC_1.c **** 
 1576              		.loc 1 1058 0
 1577 0032 10BD     		pop	{r4, pc}
 1578              	.L111:
 1579              		.align	2
 1580              	.L110:
 1581 0034 00000000 		.word	.LANCHOR1
 1582 0038 00000000 		.word	ADC_1_Offset
 1583 003c 00000000 		.word	ADC_1_CountsPerVolt
 1584              		.cfi_endproc
 1585              	.LFE17:
 1586              		.size	ADC_1_CountsTo_Volts, .-ADC_1_CountsTo_Volts
 1587              		.section	.text.ADC_1_CountsTo_uVolts,"ax",%progbits
 1588              		.align	2
 1589              		.global	ADC_1_CountsTo_uVolts
 1590              		.thumb
 1591              		.thumb_func
 1592              		.type	ADC_1_CountsTo_uVolts, %function
 1593              	ADC_1_CountsTo_uVolts:
 1594              	.LFB18:
1088:Generated_Source\PSoC5/ADC_1.c **** 
 1595              		.loc 1 1088 0
ARM GAS  C:\Users\karth\AppData\Local\Temp\ccX3KBuT.s 			page 63


 1596              		.cfi_startproc
 1597              		@ args = 0, pretend = 0, frame = 0
 1598              		@ frame_needed = 0, uses_anonymous_args = 0
 1599              		@ link register save eliminated.
 1600              	.LVL139:
 1601 0000 10B4     		push	{r4}
 1602              		.cfi_def_cfa_offset 4
 1603              		.cfi_offset 4, -4
1097:Generated_Source\PSoC5/ADC_1.c ****     {
 1604              		.loc 1 1097 0
 1605 0002 1B4B     		ldr	r3, .L123
 1606 0004 1B78     		ldrb	r3, [r3]	@ zero_extendqisi2
 1607 0006 DBB2     		uxtb	r3, r3
 1608 0008 012B     		cmp	r3, #1
 1609 000a 06D1     		bne	.L113
 1610              	.LVL140:
1101:Generated_Source\PSoC5/ADC_1.c ****         #endif /* ADC_1_CFG1_DEC_DIV */
 1611              		.loc 1 1101 0
 1612 000c 0346     		mov	r3, r0
 1613 000e 0028     		cmp	r0, #0
 1614 0010 00DA     		bge	.L114
 1615 0012 C31D     		adds	r3, r0, #7
 1616              	.L114:
 1617 0014 D810     		asrs	r0, r3, #3
 1618              	.LVL141:
1099:Generated_Source\PSoC5/ADC_1.c ****         #if(ADC_1_CFG1_DEC_DIV != 0)
 1619              		.loc 1 1099 0
 1620 0016 1423     		movs	r3, #20
 1621 0018 09E0     		b	.L115
 1622              	.LVL142:
 1623              	.L113:
1104:Generated_Source\PSoC5/ADC_1.c ****     {
 1624              		.loc 1 1104 0
 1625 001a 154B     		ldr	r3, .L123
 1626 001c 1B78     		ldrb	r3, [r3]	@ zero_extendqisi2
 1627 001e DBB2     		uxtb	r3, r3
 1628 0020 022B     		cmp	r3, #2
 1629 0022 03D0     		beq	.L119
1111:Generated_Source\PSoC5/ADC_1.c ****     {
 1630              		.loc 1 1111 0
 1631 0024 124B     		ldr	r3, .L123
 1632 0026 1B78     		ldrb	r3, [r3]	@ zero_extendqisi2
1113:Generated_Source\PSoC5/ADC_1.c ****         #if(ADC_1_CFG3_DEC_DIV != 0)
 1633              		.loc 1 1113 0
 1634 0028 1023     		movs	r3, #16
 1635 002a 00E0     		b	.L115
 1636              	.L119:
1106:Generated_Source\PSoC5/ADC_1.c ****         #if(ADC_1_CFG2_DEC_DIV != 0)
 1637              		.loc 1 1106 0
 1638 002c 1023     		movs	r3, #16
 1639              	.L115:
 1640              	.LVL143:
1126:Generated_Source\PSoC5/ADC_1.c ****     {
 1641              		.loc 1 1126 0
 1642 002e 102B     		cmp	r3, #16
 1643 0030 02D0     		beq	.L117
 1644 0032 142B     		cmp	r3, #20
ARM GAS  C:\Users\karth\AppData\Local\Temp\ccX3KBuT.s 			page 64


 1645 0034 07D0     		beq	.L120
 1646 0036 03E0     		b	.L121
 1647              	.L117:
1170:Generated_Source\PSoC5/ADC_1.c ****                 break;
 1648              		.loc 1 1170 0
 1649 0038 2021     		movs	r1, #32
1169:Generated_Source\PSoC5/ADC_1.c ****                 coefB = ADC_1_DIVISOR_32;
 1650              		.loc 1 1169 0
 1651 003a 47F61224 		movw	r4, #31250
 1652 003e 06E0     		b	.L118
 1653              	.L121:
 1654              	.LVL144:
1212:Generated_Source\PSoC5/ADC_1.c ****             break;
 1655              		.loc 1 1212 0
 1656 0040 0121     		movs	r1, #1
1211:Generated_Source\PSoC5/ADC_1.c ****             coefB = ADC_1_DIVISOR_1;
 1657              		.loc 1 1211 0
 1658 0042 0C4C     		ldr	r4, .L123+4
1213:Generated_Source\PSoC5/ADC_1.c ****     }
 1659              		.loc 1 1213 0
 1660 0044 03E0     		b	.L118
 1661              	.LVL145:
 1662              	.L120:
1206:Generated_Source\PSoC5/ADC_1.c ****                 break;
 1663              		.loc 1 1206 0
 1664 0046 4FF4FA71 		mov	r1, #500
1205:Generated_Source\PSoC5/ADC_1.c ****                 coefB = ADC_1_DIVISOR_500;
 1665              		.loc 1 1205 0
 1666 004a 4FF4FA64 		mov	r4, #2000
 1667              	.L118:
 1668              	.LVL146:
1215:Generated_Source\PSoC5/ADC_1.c ****     uVolts = ((coefA * adcCounts) / coefB) - ((coefA * ADC_1_Offset) / coefB);
 1669              		.loc 1 1215 0
 1670 004e 0A4B     		ldr	r3, .L123+8
 1671              	.LVL147:
 1672 0050 1B68     		ldr	r3, [r3]
 1673 0052 93FBF1F1 		sdiv	r1, r3, r1
 1674              	.LVL148:
1216:Generated_Source\PSoC5/ADC_1.c **** 
 1675              		.loc 1 1216 0
 1676 0056 04FB00F0 		mul	r0, r4, r0
 1677              	.LVL149:
 1678 005a 90FBF1F3 		sdiv	r3, r0, r1
 1679 005e 074A     		ldr	r2, .L123+12
 1680 0060 1268     		ldr	r2, [r2]
 1681 0062 02FB04F2 		mul	r2, r2, r4
 1682 0066 92FBF1F0 		sdiv	r0, r2, r1
 1683              	.LVL150:
1219:Generated_Source\PSoC5/ADC_1.c **** 
 1684              		.loc 1 1219 0
 1685 006a 181A     		subs	r0, r3, r0
 1686              	.LVL151:
 1687 006c 10BC     		pop	{r4}
 1688              		.cfi_restore 4
 1689              		.cfi_def_cfa_offset 0
 1690              	.LVL152:
 1691 006e 7047     		bx	lr
ARM GAS  C:\Users\karth\AppData\Local\Temp\ccX3KBuT.s 			page 65


 1692              	.L124:
 1693              		.align	2
 1694              	.L123:
 1695 0070 00000000 		.word	.LANCHOR1
 1696 0074 40420F00 		.word	1000000
 1697 0078 00000000 		.word	ADC_1_CountsPerVolt
 1698 007c 00000000 		.word	ADC_1_Offset
 1699              		.cfi_endproc
 1700              	.LFE18:
 1701              		.size	ADC_1_CountsTo_uVolts, .-ADC_1_CountsTo_uVolts
 1702              		.section	.text.ADC_1_SelectConfiguration,"ax",%progbits
 1703              		.align	2
 1704              		.global	ADC_1_SelectConfiguration
 1705              		.thumb
 1706              		.thumb_func
 1707              		.type	ADC_1_SelectConfiguration, %function
 1708              	ADC_1_SelectConfiguration:
 1709              	.LFB20:
1554:Generated_Source\PSoC5/ADC_1.c ****     /* Check whether the configuration number is valid or not */
 1710              		.loc 1 1554 0
 1711              		.cfi_startproc
 1712              		@ args = 0, pretend = 0, frame = 0
 1713              		@ frame_needed = 0, uses_anonymous_args = 0
 1714              	.LVL153:
 1715 0000 38B5     		push	{r3, r4, r5, lr}
 1716              		.cfi_def_cfa_offset 16
 1717              		.cfi_offset 3, -16
 1718              		.cfi_offset 4, -12
 1719              		.cfi_offset 5, -8
 1720              		.cfi_offset 14, -4
1556:Generated_Source\PSoC5/ADC_1.c ****     {
 1721              		.loc 1 1556 0
 1722 0002 0128     		cmp	r0, #1
 1723 0004 20D1     		bne	.L126
 1724 0006 0446     		mov	r4, r0
 1725 0008 0D46     		mov	r5, r1
1561:Generated_Source\PSoC5/ADC_1.c ****         {
 1726              		.loc 1 1561 0
 1727 000a 114B     		ldr	r3, .L130
 1728 000c 9B79     		ldrb	r3, [r3, #6]	@ zero_extendqisi2
 1729 000e 13B9     		cbnz	r3, .L127
1563:Generated_Source\PSoC5/ADC_1.c ****         }
 1730              		.loc 1 1563 0
 1731 0010 0122     		movs	r2, #1
 1732 0012 0F4B     		ldr	r3, .L130
 1733 0014 DA71     		strb	r2, [r3, #7]
 1734              	.L127:
1567:Generated_Source\PSoC5/ADC_1.c **** 
 1735              		.loc 1 1567 0
 1736 0016 0F4B     		ldr	r3, .L130+4
 1737 0018 1C70     		strb	r4, [r3]
1570:Generated_Source\PSoC5/ADC_1.c **** 
 1738              		.loc 1 1570 0
 1739 001a FFF7FEFF 		bl	ADC_1_Stop
 1740              	.LVL154:
1573:Generated_Source\PSoC5/ADC_1.c **** 
 1741              		.loc 1 1573 0
ARM GAS  C:\Users\karth\AppData\Local\Temp\ccX3KBuT.s 			page 66


 1742 001e 2046     		mov	r0, r4
 1743 0020 FFF7FEFF 		bl	ADC_1_InitConfig
 1744              	.LVL155:
1576:Generated_Source\PSoC5/ADC_1.c ****         CY_SET_REG16(ADC_1_DEC_GCOR_16B_PTR, ADC_1_gcor[config - 1u].gcor);
 1745              		.loc 1 1576 0
 1746 0024 013C     		subs	r4, r4, #1
 1747 0026 0A4B     		ldr	r3, .L130
 1748 0028 03EB8402 		add	r2, r3, r4, lsl #2
 1749 002c 9178     		ldrb	r1, [r2, #2]	@ zero_extendqisi2
 1750 002e 0A4A     		ldr	r2, .L130+8
 1751 0030 1170     		strb	r1, [r2]
1577:Generated_Source\PSoC5/ADC_1.c **** 
 1752              		.loc 1 1577 0
 1753 0032 33F82420 		ldrh	r2, [r3, r4, lsl #2]
 1754 0036 094B     		ldr	r3, .L130+12
 1755 0038 1A80     		strh	r2, [r3]	@ movhi
1579:Generated_Source\PSoC5/ADC_1.c ****         {
 1756              		.loc 1 1579 0
 1757 003a 012D     		cmp	r5, #1
 1758 003c 07D1     		bne	.L125
1582:Generated_Source\PSoC5/ADC_1.c **** 
 1759              		.loc 1 1582 0
 1760 003e FFF7FEFF 		bl	ADC_1_Start
 1761              	.LVL156:
1585:Generated_Source\PSoC5/ADC_1.c ****         }
 1762              		.loc 1 1585 0
 1763 0042 FFF7FEFF 		bl	ADC_1_StartConvert
 1764              	.LVL157:
 1765 0046 38BD     		pop	{r3, r4, r5, pc}
 1766              	.LVL158:
 1767              	.L126:
1591:Generated_Source\PSoC5/ADC_1.c ****     }
 1768              		.loc 1 1591 0 discriminator 1
 1769 0048 0020     		movs	r0, #0
 1770              	.LVL159:
 1771 004a FFF7FEFF 		bl	CyHalt
 1772              	.LVL160:
 1773              	.L125:
 1774 004e 38BD     		pop	{r3, r4, r5, pc}
 1775              	.L131:
 1776              		.align	2
 1777              	.L130:
 1778 0050 00000000 		.word	.LANCHOR0
 1779 0054 00000000 		.word	.LANCHOR1
 1780 0058 0E4E0040 		.word	1073761806
 1781 005c 0C4E0040 		.word	1073761804
 1782              		.cfi_endproc
 1783              	.LFE20:
 1784              		.size	ADC_1_SelectConfiguration, .-ADC_1_SelectConfiguration
 1785              		.section	.text.ADC_1_Read8,"ax",%progbits
 1786              		.align	2
 1787              		.global	ADC_1_Read8
 1788              		.thumb
 1789              		.thumb_func
 1790              		.type	ADC_1_Read8, %function
 1791              	ADC_1_Read8:
 1792              	.LFB23:
ARM GAS  C:\Users\karth\AppData\Local\Temp\ccX3KBuT.s 			page 67


1741:Generated_Source\PSoC5/ADC_1.c **** }
1742:Generated_Source\PSoC5/ADC_1.c **** 
1743:Generated_Source\PSoC5/ADC_1.c **** 
1744:Generated_Source\PSoC5/ADC_1.c **** /*******************************************************************************
1745:Generated_Source\PSoC5/ADC_1.c **** * Function Name: ADC_1_Read8
1746:Generated_Source\PSoC5/ADC_1.c **** ********************************************************************************
1747:Generated_Source\PSoC5/ADC_1.c **** *
1748:Generated_Source\PSoC5/ADC_1.c **** * Summary:
1749:Generated_Source\PSoC5/ADC_1.c **** *  This function simplifies getting results from the ADC when only a
1750:Generated_Source\PSoC5/ADC_1.c **** *  single reading is required. When called, it will start ADC
1751:Generated_Source\PSoC5/ADC_1.c **** *  conversions, wait for the conversion to be complete, stop ADC
1752:Generated_Source\PSoC5/ADC_1.c **** *  conversion and return the result. This is a blocking function and will
1753:Generated_Source\PSoC5/ADC_1.c **** *  not return until the result is ready.
1754:Generated_Source\PSoC5/ADC_1.c **** *
1755:Generated_Source\PSoC5/ADC_1.c **** * Parameters:
1756:Generated_Source\PSoC5/ADC_1.c **** *  None
1757:Generated_Source\PSoC5/ADC_1.c **** *
1758:Generated_Source\PSoC5/ADC_1.c **** * Return:
1759:Generated_Source\PSoC5/ADC_1.c **** *  int8:  ADC result.
1760:Generated_Source\PSoC5/ADC_1.c **** *
1761:Generated_Source\PSoC5/ADC_1.c **** *******************************************************************************/
1762:Generated_Source\PSoC5/ADC_1.c **** int8 ADC_1_Read8(void) 
1763:Generated_Source\PSoC5/ADC_1.c **** {
 1793              		.loc 1 1763 0
 1794              		.cfi_startproc
 1795              		@ args = 0, pretend = 0, frame = 0
 1796              		@ frame_needed = 0, uses_anonymous_args = 0
 1797 0000 10B5     		push	{r4, lr}
 1798              		.cfi_def_cfa_offset 8
 1799              		.cfi_offset 4, -8
 1800              		.cfi_offset 14, -4
1764:Generated_Source\PSoC5/ADC_1.c ****     int8 result;
1765:Generated_Source\PSoC5/ADC_1.c **** 
1766:Generated_Source\PSoC5/ADC_1.c ****     /* Clear pending conversion done status */
1767:Generated_Source\PSoC5/ADC_1.c ****     ADC_1_DEC_SR_REG |= ADC_1_DEC_INTR_CLEAR;
 1801              		.loc 1 1767 0
 1802 0002 084A     		ldr	r2, .L134
 1803 0004 1378     		ldrb	r3, [r2]	@ zero_extendqisi2
 1804 0006 43F00403 		orr	r3, r3, #4
 1805 000a 1370     		strb	r3, [r2]
1768:Generated_Source\PSoC5/ADC_1.c ****     ADC_1_StartConvert();
 1806              		.loc 1 1768 0
 1807 000c FFF7FEFF 		bl	ADC_1_StartConvert
 1808              	.LVL161:
1769:Generated_Source\PSoC5/ADC_1.c ****     (void)ADC_1_IsEndConversion(ADC_1_WAIT_FOR_RESULT);
 1809              		.loc 1 1769 0
 1810 0010 0020     		movs	r0, #0
 1811 0012 FFF7FEFF 		bl	ADC_1_IsEndConversion
 1812              	.LVL162:
1770:Generated_Source\PSoC5/ADC_1.c ****      result = ADC_1_GetResult8();
 1813              		.loc 1 1770 0
 1814 0016 FFF7FEFF 		bl	ADC_1_GetResult8
 1815              	.LVL163:
 1816 001a 0446     		mov	r4, r0
 1817              	.LVL164:
1771:Generated_Source\PSoC5/ADC_1.c ****     ADC_1_StopConvert();
 1818              		.loc 1 1771 0
ARM GAS  C:\Users\karth\AppData\Local\Temp\ccX3KBuT.s 			page 68


 1819 001c FFF7FEFF 		bl	ADC_1_StopConvert
 1820              	.LVL165:
1772:Generated_Source\PSoC5/ADC_1.c ****     
1773:Generated_Source\PSoC5/ADC_1.c ****      return(result);
1774:Generated_Source\PSoC5/ADC_1.c **** }
 1821              		.loc 1 1774 0
 1822 0020 2046     		mov	r0, r4
 1823 0022 10BD     		pop	{r4, pc}
 1824              	.LVL166:
 1825              	.L135:
 1826              		.align	2
 1827              	.L134:
 1828 0024 014E0040 		.word	1073761793
 1829              		.cfi_endproc
 1830              	.LFE23:
 1831              		.size	ADC_1_Read8, .-ADC_1_Read8
 1832              		.section	.text.ADC_1_Read16,"ax",%progbits
 1833              		.align	2
 1834              		.global	ADC_1_Read16
 1835              		.thumb
 1836              		.thumb_func
 1837              		.type	ADC_1_Read16, %function
 1838              	ADC_1_Read16:
 1839              	.LFB24:
1775:Generated_Source\PSoC5/ADC_1.c **** 
1776:Generated_Source\PSoC5/ADC_1.c **** 
1777:Generated_Source\PSoC5/ADC_1.c **** /*******************************************************************************
1778:Generated_Source\PSoC5/ADC_1.c **** * Function Name: ADC_1_Read16
1779:Generated_Source\PSoC5/ADC_1.c **** ********************************************************************************
1780:Generated_Source\PSoC5/ADC_1.c **** *
1781:Generated_Source\PSoC5/ADC_1.c **** * Summary:
1782:Generated_Source\PSoC5/ADC_1.c **** *  This function simplifies getting results from the ADC when only a
1783:Generated_Source\PSoC5/ADC_1.c **** *  single reading is required. When called, it will start ADC
1784:Generated_Source\PSoC5/ADC_1.c **** *  conversions, wait for the conversion to be complete, stop ADC
1785:Generated_Source\PSoC5/ADC_1.c **** *  conversion and return the result. This is a blocking function and will
1786:Generated_Source\PSoC5/ADC_1.c **** *  not return until the result is ready.
1787:Generated_Source\PSoC5/ADC_1.c **** *
1788:Generated_Source\PSoC5/ADC_1.c **** * Parameters:
1789:Generated_Source\PSoC5/ADC_1.c **** *   void
1790:Generated_Source\PSoC5/ADC_1.c **** *
1791:Generated_Source\PSoC5/ADC_1.c **** * Return:
1792:Generated_Source\PSoC5/ADC_1.c **** *  int16:  ADC result.
1793:Generated_Source\PSoC5/ADC_1.c **** *
1794:Generated_Source\PSoC5/ADC_1.c **** *******************************************************************************/
1795:Generated_Source\PSoC5/ADC_1.c **** int16 ADC_1_Read16(void) 
1796:Generated_Source\PSoC5/ADC_1.c **** {
 1840              		.loc 1 1796 0
 1841              		.cfi_startproc
 1842              		@ args = 0, pretend = 0, frame = 0
 1843              		@ frame_needed = 0, uses_anonymous_args = 0
 1844 0000 10B5     		push	{r4, lr}
 1845              		.cfi_def_cfa_offset 8
 1846              		.cfi_offset 4, -8
 1847              		.cfi_offset 14, -4
1797:Generated_Source\PSoC5/ADC_1.c ****     int16 result;
1798:Generated_Source\PSoC5/ADC_1.c **** 
1799:Generated_Source\PSoC5/ADC_1.c ****     /* Clear pending conversion done status */
ARM GAS  C:\Users\karth\AppData\Local\Temp\ccX3KBuT.s 			page 69


1800:Generated_Source\PSoC5/ADC_1.c ****     ADC_1_DEC_SR_REG |= ADC_1_DEC_INTR_CLEAR;
 1848              		.loc 1 1800 0
 1849 0002 084A     		ldr	r2, .L138
 1850 0004 1378     		ldrb	r3, [r2]	@ zero_extendqisi2
 1851 0006 43F00403 		orr	r3, r3, #4
 1852 000a 1370     		strb	r3, [r2]
1801:Generated_Source\PSoC5/ADC_1.c ****     ADC_1_StartConvert();
 1853              		.loc 1 1801 0
 1854 000c FFF7FEFF 		bl	ADC_1_StartConvert
 1855              	.LVL167:
1802:Generated_Source\PSoC5/ADC_1.c ****     (void)ADC_1_IsEndConversion(ADC_1_WAIT_FOR_RESULT);
 1856              		.loc 1 1802 0
 1857 0010 0020     		movs	r0, #0
 1858 0012 FFF7FEFF 		bl	ADC_1_IsEndConversion
 1859              	.LVL168:
1803:Generated_Source\PSoC5/ADC_1.c ****      result = ADC_1_GetResult16();
 1860              		.loc 1 1803 0
 1861 0016 FFF7FEFF 		bl	ADC_1_GetResult16
 1862              	.LVL169:
 1863 001a 0446     		mov	r4, r0
 1864              	.LVL170:
1804:Generated_Source\PSoC5/ADC_1.c ****     ADC_1_StopConvert();
 1865              		.loc 1 1804 0
 1866 001c FFF7FEFF 		bl	ADC_1_StopConvert
 1867              	.LVL171:
1805:Generated_Source\PSoC5/ADC_1.c ****     
1806:Generated_Source\PSoC5/ADC_1.c ****      return(result);
1807:Generated_Source\PSoC5/ADC_1.c **** }
 1868              		.loc 1 1807 0
 1869 0020 2046     		mov	r0, r4
 1870 0022 10BD     		pop	{r4, pc}
 1871              	.LVL172:
 1872              	.L139:
 1873              		.align	2
 1874              	.L138:
 1875 0024 014E0040 		.word	1073761793
 1876              		.cfi_endproc
 1877              	.LFE24:
 1878              		.size	ADC_1_Read16, .-ADC_1_Read16
 1879              		.section	.text.ADC_1_Read32,"ax",%progbits
 1880              		.align	2
 1881              		.global	ADC_1_Read32
 1882              		.thumb
 1883              		.thumb_func
 1884              		.type	ADC_1_Read32, %function
 1885              	ADC_1_Read32:
 1886              	.LFB25:
1808:Generated_Source\PSoC5/ADC_1.c **** 
1809:Generated_Source\PSoC5/ADC_1.c **** 
1810:Generated_Source\PSoC5/ADC_1.c **** /*******************************************************************************
1811:Generated_Source\PSoC5/ADC_1.c **** * Function Name: ADC_1_Read32
1812:Generated_Source\PSoC5/ADC_1.c **** ********************************************************************************
1813:Generated_Source\PSoC5/ADC_1.c **** *
1814:Generated_Source\PSoC5/ADC_1.c **** * Summary:
1815:Generated_Source\PSoC5/ADC_1.c **** *  This function simplifies getting results from the ADC when only a
1816:Generated_Source\PSoC5/ADC_1.c **** *  single reading is required. When called, it will start ADC
1817:Generated_Source\PSoC5/ADC_1.c **** *  conversions, wait for the conversion to be complete, stop ADC
ARM GAS  C:\Users\karth\AppData\Local\Temp\ccX3KBuT.s 			page 70


1818:Generated_Source\PSoC5/ADC_1.c **** *  conversion and return the result. This is a blocking function and will
1819:Generated_Source\PSoC5/ADC_1.c **** *  not return until the result is ready.
1820:Generated_Source\PSoC5/ADC_1.c **** *
1821:Generated_Source\PSoC5/ADC_1.c **** * Parameters:
1822:Generated_Source\PSoC5/ADC_1.c **** *  None
1823:Generated_Source\PSoC5/ADC_1.c **** *
1824:Generated_Source\PSoC5/ADC_1.c **** * Return:
1825:Generated_Source\PSoC5/ADC_1.c **** *  int32: ADC result.
1826:Generated_Source\PSoC5/ADC_1.c **** *
1827:Generated_Source\PSoC5/ADC_1.c **** *******************************************************************************/
1828:Generated_Source\PSoC5/ADC_1.c **** int32 ADC_1_Read32(void) 
1829:Generated_Source\PSoC5/ADC_1.c **** {
 1887              		.loc 1 1829 0
 1888              		.cfi_startproc
 1889              		@ args = 0, pretend = 0, frame = 0
 1890              		@ frame_needed = 0, uses_anonymous_args = 0
 1891 0000 10B5     		push	{r4, lr}
 1892              		.cfi_def_cfa_offset 8
 1893              		.cfi_offset 4, -8
 1894              		.cfi_offset 14, -4
1830:Generated_Source\PSoC5/ADC_1.c ****     int32 result;
1831:Generated_Source\PSoC5/ADC_1.c ****     
1832:Generated_Source\PSoC5/ADC_1.c ****     /* Clear pending conversion done status */
1833:Generated_Source\PSoC5/ADC_1.c ****     ADC_1_DEC_SR_REG |= ADC_1_DEC_INTR_CLEAR;
 1895              		.loc 1 1833 0
 1896 0002 084A     		ldr	r2, .L142
 1897 0004 1378     		ldrb	r3, [r2]	@ zero_extendqisi2
 1898 0006 43F00403 		orr	r3, r3, #4
 1899 000a 1370     		strb	r3, [r2]
1834:Generated_Source\PSoC5/ADC_1.c ****     ADC_1_StartConvert();
 1900              		.loc 1 1834 0
 1901 000c FFF7FEFF 		bl	ADC_1_StartConvert
 1902              	.LVL173:
1835:Generated_Source\PSoC5/ADC_1.c ****     (void)ADC_1_IsEndConversion(ADC_1_WAIT_FOR_RESULT);
 1903              		.loc 1 1835 0
 1904 0010 0020     		movs	r0, #0
 1905 0012 FFF7FEFF 		bl	ADC_1_IsEndConversion
 1906              	.LVL174:
1836:Generated_Source\PSoC5/ADC_1.c ****      result = ADC_1_GetResult32();
 1907              		.loc 1 1836 0
 1908 0016 FFF7FEFF 		bl	ADC_1_GetResult32
 1909              	.LVL175:
 1910 001a 0446     		mov	r4, r0
 1911              	.LVL176:
1837:Generated_Source\PSoC5/ADC_1.c ****     ADC_1_StopConvert();
 1912              		.loc 1 1837 0
 1913 001c FFF7FEFF 		bl	ADC_1_StopConvert
 1914              	.LVL177:
1838:Generated_Source\PSoC5/ADC_1.c ****     
1839:Generated_Source\PSoC5/ADC_1.c ****      return(result);
1840:Generated_Source\PSoC5/ADC_1.c **** }
 1915              		.loc 1 1840 0
 1916 0020 2046     		mov	r0, r4
 1917 0022 10BD     		pop	{r4, pc}
 1918              	.LVL178:
 1919              	.L143:
 1920              		.align	2
ARM GAS  C:\Users\karth\AppData\Local\Temp\ccX3KBuT.s 			page 71


 1921              	.L142:
 1922 0024 014E0040 		.word	1073761793
 1923              		.cfi_endproc
 1924              	.LFE25:
 1925              		.size	ADC_1_Read32, .-ADC_1_Read32
 1926              		.comm	ADC_1_CountsPerVolt,4,4
 1927              		.comm	ADC_1_Offset,4,4
 1928              		.global	ADC_1_Config
 1929              		.global	ADC_1_started
 1930              		.global	ADC_1_initVar
 1931              		.global	ADC_1_stopConversion
 1932              		.global	ADC_1_convDone
 1933              		.data
 1934              		.set	.LANCHOR1,. + 0
 1935              		.type	ADC_1_Config, %object
 1936              		.size	ADC_1_Config, 1
 1937              	ADC_1_Config:
 1938 0000 01       		.byte	1
 1939              		.bss
 1940              		.align	2
 1941              		.set	.LANCHOR0,. + 0
 1942              		.type	ADC_1_gcor, %object
 1943              		.size	ADC_1_gcor, 4
 1944              	ADC_1_gcor:
 1945 0000 00000000 		.space	4
 1946              		.type	ADC_1_stopConversion, %object
 1947              		.size	ADC_1_stopConversion, 1
 1948              	ADC_1_stopConversion:
 1949 0004 00       		.space	1
 1950              		.type	ADC_1_convDone, %object
 1951              		.size	ADC_1_convDone, 1
 1952              	ADC_1_convDone:
 1953 0005 00       		.space	1
 1954              		.type	ADC_1_initVar, %object
 1955              		.size	ADC_1_initVar, 1
 1956              	ADC_1_initVar:
 1957 0006 00       		.space	1
 1958              		.type	ADC_1_started, %object
 1959              		.size	ADC_1_started, 1
 1960              	ADC_1_started:
 1961 0007 00       		.space	1
 1962              		.text
 1963              	.Letext0:
 1964              		.file 2 "Generated_Source\\PSoC5\\cytypes.h"
 1965              		.file 3 "Generated_Source\\PSoC5\\ADC_1.h"
 1966              		.file 4 "Generated_Source\\PSoC5\\CyLib.h"
 1967              		.file 5 "Generated_Source\\PSoC5\\ADC_1_Ext_CP_Clk.h"
 1968              		.file 6 "Generated_Source\\PSoC5\\ADC_1_theACLK.h"
 1969              		.section	.debug_info,"",%progbits
 1970              	.Ldebug_info0:
 1971 0000 FC090000 		.4byte	0x9fc
 1972 0004 0400     		.2byte	0x4
 1973 0006 00000000 		.4byte	.Ldebug_abbrev0
 1974 000a 04       		.byte	0x4
 1975 000b 01       		.uleb128 0x1
 1976 000c BE030000 		.4byte	.LASF100
 1977 0010 0C       		.byte	0xc
ARM GAS  C:\Users\karth\AppData\Local\Temp\ccX3KBuT.s 			page 72


 1978 0011 A8040000 		.4byte	.LASF101
 1979 0015 A3050000 		.4byte	.LASF102
 1980 0019 00000000 		.4byte	.Ldebug_ranges0+0
 1981 001d 00000000 		.4byte	0
 1982 0021 00000000 		.4byte	.Ldebug_line0
 1983 0025 02       		.uleb128 0x2
 1984 0026 04       		.byte	0x4
 1985 0027 04       		.byte	0x4
 1986 0028 0A030000 		.4byte	.LASF0
 1987 002c 02       		.uleb128 0x2
 1988 002d 01       		.byte	0x1
 1989 002e 06       		.byte	0x6
 1990 002f A1000000 		.4byte	.LASF1
 1991 0033 02       		.uleb128 0x2
 1992 0034 01       		.byte	0x1
 1993 0035 08       		.byte	0x8
 1994 0036 5E030000 		.4byte	.LASF2
 1995 003a 02       		.uleb128 0x2
 1996 003b 02       		.byte	0x2
 1997 003c 05       		.byte	0x5
 1998 003d 8B030000 		.4byte	.LASF3
 1999 0041 02       		.uleb128 0x2
 2000 0042 02       		.byte	0x2
 2001 0043 07       		.byte	0x7
 2002 0044 0A020000 		.4byte	.LASF4
 2003 0048 02       		.uleb128 0x2
 2004 0049 04       		.byte	0x4
 2005 004a 05       		.byte	0x5
 2006 004b E0000000 		.4byte	.LASF5
 2007 004f 02       		.uleb128 0x2
 2008 0050 04       		.byte	0x4
 2009 0051 07       		.byte	0x7
 2010 0052 C3010000 		.4byte	.LASF6
 2011 0056 02       		.uleb128 0x2
 2012 0057 08       		.byte	0x8
 2013 0058 05       		.byte	0x5
 2014 0059 93000000 		.4byte	.LASF7
 2015 005d 02       		.uleb128 0x2
 2016 005e 08       		.byte	0x8
 2017 005f 07       		.byte	0x7
 2018 0060 5F000000 		.4byte	.LASF8
 2019 0064 03       		.uleb128 0x3
 2020 0065 04       		.byte	0x4
 2021 0066 05       		.byte	0x5
 2022 0067 696E7400 		.ascii	"int\000"
 2023 006b 02       		.uleb128 0x2
 2024 006c 04       		.byte	0x4
 2025 006d 07       		.byte	0x7
 2026 006e 9C010000 		.4byte	.LASF9
 2027 0072 04       		.uleb128 0x4
 2028 0073 EF000000 		.4byte	.LASF10
 2029 0077 02       		.byte	0x2
 2030 0078 9201     		.2byte	0x192
 2031 007a 33000000 		.4byte	0x33
 2032 007e 04       		.uleb128 0x4
 2033 007f 00000000 		.4byte	.LASF11
 2034 0083 02       		.byte	0x2
ARM GAS  C:\Users\karth\AppData\Local\Temp\ccX3KBuT.s 			page 73


 2035 0084 9301     		.2byte	0x193
 2036 0086 41000000 		.4byte	0x41
 2037 008a 04       		.uleb128 0x4
 2038 008b 1A010000 		.4byte	.LASF12
 2039 008f 02       		.byte	0x2
 2040 0090 9401     		.2byte	0x194
 2041 0092 4F000000 		.4byte	0x4f
 2042 0096 04       		.uleb128 0x4
 2043 0097 30020000 		.4byte	.LASF13
 2044 009b 02       		.byte	0x2
 2045 009c 9501     		.2byte	0x195
 2046 009e 2C000000 		.4byte	0x2c
 2047 00a2 04       		.uleb128 0x4
 2048 00a3 89050000 		.4byte	.LASF14
 2049 00a7 02       		.byte	0x2
 2050 00a8 9601     		.2byte	0x196
 2051 00aa 3A000000 		.4byte	0x3a
 2052 00ae 04       		.uleb128 0x4
 2053 00af B8000000 		.4byte	.LASF15
 2054 00b3 02       		.byte	0x2
 2055 00b4 9701     		.2byte	0x197
 2056 00b6 48000000 		.4byte	0x48
 2057 00ba 04       		.uleb128 0x4
 2058 00bb B4020000 		.4byte	.LASF16
 2059 00bf 02       		.byte	0x2
 2060 00c0 9801     		.2byte	0x198
 2061 00c2 25000000 		.4byte	0x25
 2062 00c6 02       		.uleb128 0x2
 2063 00c7 08       		.byte	0x8
 2064 00c8 04       		.byte	0x4
 2065 00c9 FF000000 		.4byte	.LASF17
 2066 00cd 02       		.uleb128 0x2
 2067 00ce 01       		.byte	0x1
 2068 00cf 08       		.byte	0x8
 2069 00d0 81040000 		.4byte	.LASF18
 2070 00d4 04       		.uleb128 0x4
 2071 00d5 3A030000 		.4byte	.LASF19
 2072 00d9 02       		.byte	0x2
 2073 00da 3C02     		.2byte	0x23c
 2074 00dc E0000000 		.4byte	0xe0
 2075 00e0 05       		.uleb128 0x5
 2076 00e1 72000000 		.4byte	0x72
 2077 00e5 04       		.uleb128 0x4
 2078 00e6 E9000000 		.4byte	.LASF20
 2079 00ea 02       		.byte	0x2
 2080 00eb 3D02     		.2byte	0x23d
 2081 00ed F1000000 		.4byte	0xf1
 2082 00f1 05       		.uleb128 0x5
 2083 00f2 7E000000 		.4byte	0x7e
 2084 00f6 04       		.uleb128 0x4
 2085 00f7 A0020000 		.4byte	.LASF21
 2086 00fb 02       		.byte	0x2
 2087 00fc 3E02     		.2byte	0x23e
 2088 00fe 02010000 		.4byte	0x102
 2089 0102 05       		.uleb128 0x5
 2090 0103 8A000000 		.4byte	0x8a
 2091 0107 02       		.uleb128 0x2
ARM GAS  C:\Users\karth\AppData\Local\Temp\ccX3KBuT.s 			page 74


 2092 0108 08       		.byte	0x8
 2093 0109 04       		.byte	0x4
 2094 010a C5020000 		.4byte	.LASF22
 2095 010e 02       		.uleb128 0x2
 2096 010f 04       		.byte	0x4
 2097 0110 07       		.byte	0x7
 2098 0111 BC020000 		.4byte	.LASF23
 2099 0115 06       		.uleb128 0x6
 2100 0116 04       		.byte	0x4
 2101 0117 03       		.byte	0x3
 2102 0118 2F       		.byte	0x2f
 2103 0119 36010000 		.4byte	0x136
 2104 011d 07       		.uleb128 0x7
 2105 011e 48000000 		.4byte	.LASF24
 2106 0122 03       		.byte	0x3
 2107 0123 31       		.byte	0x31
 2108 0124 7E000000 		.4byte	0x7e
 2109 0128 00       		.byte	0
 2110 0129 07       		.uleb128 0x7
 2111 012a A3040000 		.4byte	.LASF25
 2112 012e 03       		.byte	0x3
 2113 012f 32       		.byte	0x32
 2114 0130 72000000 		.4byte	0x72
 2115 0134 02       		.byte	0x2
 2116 0135 00       		.byte	0
 2117 0136 08       		.uleb128 0x8
 2118 0137 63040000 		.4byte	.LASF26
 2119 013b 03       		.byte	0x3
 2120 013c 33       		.byte	0x33
 2121 013d 15010000 		.4byte	0x115
 2122 0141 09       		.uleb128 0x9
 2123 0142 62020000 		.4byte	.LASF36
 2124 0146 01       		.byte	0x1
 2125 0147 5106     		.2byte	0x651
 2126 0149 00000000 		.4byte	.LFB21
 2127 014d DC000000 		.4byte	.LFE21-.LFB21
 2128 0151 01       		.uleb128 0x1
 2129 0152 9C       		.byte	0x9c
 2130 0153 F7010000 		.4byte	0x1f7
 2131 0157 0A       		.uleb128 0xa
 2132 0158 25000000 		.4byte	.LASF27
 2133 015c 01       		.byte	0x1
 2134 015d 5106     		.2byte	0x651
 2135 015f 72000000 		.4byte	0x72
 2136 0163 00000000 		.4byte	.LLST0
 2137 0167 0A       		.uleb128 0xa
 2138 0168 3F030000 		.4byte	.LASF28
 2139 016c 01       		.byte	0x1
 2140 016d 5106     		.2byte	0x651
 2141 016f 7E000000 		.4byte	0x7e
 2142 0173 3A000000 		.4byte	.LLST1
 2143 0177 0A       		.uleb128 0xa
 2144 0178 83000000 		.4byte	.LASF29
 2145 017c 01       		.byte	0x1
 2146 017d 5106     		.2byte	0x651
 2147 017f 7E000000 		.4byte	0x7e
 2148 0183 74000000 		.4byte	.LLST2
ARM GAS  C:\Users\karth\AppData\Local\Temp\ccX3KBuT.s 			page 75


 2149 0187 0A       		.uleb128 0xa
 2150 0188 58040000 		.4byte	.LASF30
 2151 018c 01       		.byte	0x1
 2152 018d 5206     		.2byte	0x652
 2153 018f 72000000 		.4byte	0x72
 2154 0193 AE000000 		.4byte	.LLST3
 2155 0197 0A       		.uleb128 0xa
 2156 0198 9C040000 		.4byte	.LASF31
 2157 019c 01       		.byte	0x1
 2158 019d 5206     		.2byte	0x652
 2159 019f 72000000 		.4byte	0x72
 2160 01a3 01010000 		.4byte	.LLST4
 2161 01a7 0B       		.uleb128 0xb
 2162 01a8 9A020000 		.4byte	.LASF32
 2163 01ac 01       		.byte	0x1
 2164 01ad 5406     		.2byte	0x654
 2165 01af 96000000 		.4byte	0x96
 2166 01b3 2D010000 		.4byte	.LLST5
 2167 01b7 0B       		.uleb128 0xb
 2168 01b8 4C030000 		.4byte	.LASF33
 2169 01bc 01       		.byte	0x1
 2170 01bd 5506     		.2byte	0x655
 2171 01bf AE000000 		.4byte	0xae
 2172 01c3 A3010000 		.4byte	.LLST6
 2173 01c7 0B       		.uleb128 0xb
 2174 01c8 58020000 		.4byte	.LASF34
 2175 01cc 01       		.byte	0x1
 2176 01cd 5606     		.2byte	0x656
 2177 01cf 7E000000 		.4byte	0x7e
 2178 01d3 B6010000 		.4byte	.LLST7
 2179 01d7 0B       		.uleb128 0xb
 2180 01d8 95030000 		.4byte	.LASF35
 2181 01dc 01       		.byte	0x1
 2182 01dd 5706     		.2byte	0x657
 2183 01df 8A000000 		.4byte	0x8a
 2184 01e3 DF010000 		.4byte	.LLST8
 2185 01e7 0C       		.uleb128 0xc
 2186 01e8 B4000000 		.4byte	.LVL33
 2187 01ec 91090000 		.4byte	0x991
 2188 01f0 0D       		.uleb128 0xd
 2189 01f1 01       		.uleb128 0x1
 2190 01f2 50       		.byte	0x50
 2191 01f3 01       		.uleb128 0x1
 2192 01f4 30       		.byte	0x30
 2193 01f5 00       		.byte	0
 2194 01f6 00       		.byte	0
 2195 01f7 09       		.uleb128 0x9
 2196 01f8 8F050000 		.4byte	.LASF37
 2197 01fc 01       		.byte	0x1
 2198 01fd BC06     		.2byte	0x6bc
 2199 01ff 00000000 		.4byte	.LFB22
 2200 0203 4C000000 		.4byte	.LFE22-.LFB22
 2201 0207 01       		.uleb128 0x1
 2202 0208 9C       		.byte	0x9c
 2203 0209 5A020000 		.4byte	0x25a
 2204 020d 0A       		.uleb128 0xa
 2205 020e 6D010000 		.4byte	.LASF38
ARM GAS  C:\Users\karth\AppData\Local\Temp\ccX3KBuT.s 			page 76


 2206 0212 01       		.byte	0x1
 2207 0213 BC06     		.2byte	0x6bc
 2208 0215 72000000 		.4byte	0x72
 2209 0219 F2010000 		.4byte	.LLST9
 2210 021d 0B       		.uleb128 0xb
 2211 021e 12050000 		.4byte	.LASF39
 2212 0222 01       		.byte	0x1
 2213 0223 BE06     		.2byte	0x6be
 2214 0225 72000000 		.4byte	0x72
 2215 0229 13020000 		.4byte	.LLST10
 2216 022d 0E       		.uleb128 0xe
 2217 022e 08000000 		.4byte	.LVL36
 2218 0232 9C090000 		.4byte	0x99c
 2219 0236 0F       		.uleb128 0xf
 2220 0237 28000000 		.4byte	.LVL38
 2221 023b A7090000 		.4byte	0x9a7
 2222 023f 49020000 		.4byte	0x249
 2223 0243 0D       		.uleb128 0xd
 2224 0244 01       		.uleb128 0x1
 2225 0245 50       		.byte	0x50
 2226 0246 01       		.uleb128 0x1
 2227 0247 33       		.byte	0x33
 2228 0248 00       		.byte	0
 2229 0249 0C       		.uleb128 0xc
 2230 024a 3E000000 		.4byte	.LVL39
 2231 024e B2090000 		.4byte	0x9b2
 2232 0252 0D       		.uleb128 0xd
 2233 0253 01       		.uleb128 0x1
 2234 0254 50       		.byte	0x50
 2235 0255 02       		.uleb128 0x2
 2236 0256 76       		.byte	0x76
 2237 0257 00       		.sleb128 0
 2238 0258 00       		.byte	0
 2239 0259 00       		.byte	0
 2240 025a 09       		.uleb128 0x9
 2241 025b BE000000 		.4byte	.LASF40
 2242 025f 01       		.byte	0x1
 2243 0260 DA04     		.2byte	0x4da
 2244 0262 00000000 		.4byte	.LFB19
 2245 0266 E8000000 		.4byte	.LFE19-.LFB19
 2246 026a 01       		.uleb128 0x1
 2247 026b 9C       		.byte	0x9c
 2248 026c D9020000 		.4byte	0x2d9
 2249 0270 0A       		.uleb128 0xa
 2250 0271 9C040000 		.4byte	.LASF31
 2251 0275 01       		.byte	0x1
 2252 0276 DA04     		.2byte	0x4da
 2253 0278 72000000 		.4byte	0x72
 2254 027c 26020000 		.4byte	.LLST11
 2255 0280 0F       		.uleb128 0xf
 2256 0281 86000000 		.4byte	.LVL43
 2257 0285 F7010000 		.4byte	0x1f7
 2258 0289 94020000 		.4byte	0x294
 2259 028d 0D       		.uleb128 0xd
 2260 028e 01       		.uleb128 0x1
 2261 028f 50       		.byte	0x50
 2262 0290 02       		.uleb128 0x2
ARM GAS  C:\Users\karth\AppData\Local\Temp\ccX3KBuT.s 			page 77


 2263 0291 08       		.byte	0x8
 2264 0292 44       		.byte	0x44
 2265 0293 00       		.byte	0
 2266 0294 0F       		.uleb128 0xf
 2267 0295 B6000000 		.4byte	.LVL44
 2268 0299 BD090000 		.4byte	0x9bd
 2269 029d AE020000 		.4byte	0x2ae
 2270 02a1 0D       		.uleb128 0xd
 2271 02a2 01       		.uleb128 0x1
 2272 02a3 50       		.byte	0x50
 2273 02a4 02       		.uleb128 0x2
 2274 02a5 08       		.byte	0x8
 2275 02a6 41       		.byte	0x41
 2276 02a7 0D       		.uleb128 0xd
 2277 02a8 01       		.uleb128 0x1
 2278 02a9 51       		.byte	0x51
 2279 02aa 02       		.uleb128 0x2
 2280 02ab 75       		.byte	0x75
 2281 02ac 00       		.sleb128 0
 2282 02ad 00       		.byte	0
 2283 02ae 0F       		.uleb128 0xf
 2284 02af C0000000 		.4byte	.LVL45
 2285 02b3 C8090000 		.4byte	0x9c8
 2286 02b7 C9020000 		.4byte	0x2c9
 2287 02bb 0D       		.uleb128 0xd
 2288 02bc 01       		.uleb128 0x1
 2289 02bd 50       		.byte	0x50
 2290 02be 03       		.uleb128 0x3
 2291 02bf 0A       		.byte	0xa
 2292 02c0 0901     		.2byte	0x109
 2293 02c2 0D       		.uleb128 0xd
 2294 02c3 01       		.uleb128 0x1
 2295 02c4 51       		.byte	0x51
 2296 02c5 02       		.uleb128 0x2
 2297 02c6 75       		.byte	0x75
 2298 02c7 00       		.sleb128 0
 2299 02c8 00       		.byte	0
 2300 02c9 0C       		.uleb128 0xc
 2301 02ca C8000000 		.4byte	.LVL46
 2302 02ce D3090000 		.4byte	0x9d3
 2303 02d2 0D       		.uleb128 0xd
 2304 02d3 01       		.uleb128 0x1
 2305 02d4 50       		.byte	0x50
 2306 02d5 01       		.uleb128 0x1
 2307 02d6 4D       		.byte	0x4d
 2308 02d7 00       		.byte	0
 2309 02d8 00       		.byte	0
 2310 02d9 10       		.uleb128 0x10
 2311 02da DF020000 		.4byte	.LASF41
 2312 02de 01       		.byte	0x1
 2313 02df 5B       		.byte	0x5b
 2314 02e0 00000000 		.4byte	.LFB0
 2315 02e4 D0000000 		.4byte	.LFE0-.LFB0
 2316 02e8 01       		.uleb128 0x1
 2317 02e9 9C       		.byte	0x9c
 2318 02ea 63030000 		.4byte	0x363
 2319 02ee 0F       		.uleb128 0xf
ARM GAS  C:\Users\karth\AppData\Local\Temp\ccX3KBuT.s 			page 78


 2320 02ef 16000000 		.4byte	.LVL47
 2321 02f3 DE090000 		.4byte	0x9de
 2322 02f7 01030000 		.4byte	0x301
 2323 02fb 0D       		.uleb128 0xd
 2324 02fc 01       		.uleb128 0x1
 2325 02fd 50       		.byte	0x50
 2326 02fe 01       		.uleb128 0x1
 2327 02ff 40       		.byte	0x40
 2328 0300 00       		.byte	0
 2329 0301 0F       		.uleb128 0xf
 2330 0302 1C000000 		.4byte	.LVL48
 2331 0306 E9090000 		.4byte	0x9e9
 2332 030a 14030000 		.4byte	0x314
 2333 030e 0D       		.uleb128 0xd
 2334 030f 01       		.uleb128 0x1
 2335 0310 50       		.byte	0x50
 2336 0311 01       		.uleb128 0x1
 2337 0312 40       		.byte	0x40
 2338 0313 00       		.byte	0
 2339 0314 0F       		.uleb128 0xf
 2340 0315 24000000 		.4byte	.LVL49
 2341 0319 F4090000 		.4byte	0x9f4
 2342 031d 2C030000 		.4byte	0x32c
 2343 0321 0D       		.uleb128 0xd
 2344 0322 01       		.uleb128 0x1
 2345 0323 50       		.byte	0x50
 2346 0324 01       		.uleb128 0x1
 2347 0325 4D       		.byte	0x4d
 2348 0326 0D       		.uleb128 0xd
 2349 0327 01       		.uleb128 0x1
 2350 0328 51       		.byte	0x51
 2351 0329 01       		.uleb128 0x1
 2352 032a 37       		.byte	0x37
 2353 032b 00       		.byte	0
 2354 032c 0F       		.uleb128 0xf
 2355 032d 86000000 		.4byte	.LVL50
 2356 0331 41010000 		.4byte	0x141
 2357 0335 59030000 		.4byte	0x359
 2358 0339 0D       		.uleb128 0xd
 2359 033a 01       		.uleb128 0x1
 2360 033b 50       		.byte	0x50
 2361 033c 01       		.uleb128 0x1
 2362 033d 3A       		.byte	0x3a
 2363 033e 0D       		.uleb128 0xd
 2364 033f 01       		.uleb128 0x1
 2365 0340 51       		.byte	0x51
 2366 0341 03       		.uleb128 0x3
 2367 0342 0B       		.byte	0xb
 2368 0343 E28E     		.2byte	0x8ee2
 2369 0345 0D       		.uleb128 0xd
 2370 0346 01       		.uleb128 0x1
 2371 0347 52       		.byte	0x52
 2372 0348 03       		.uleb128 0x3
 2373 0349 0B       		.byte	0xb
 2374 034a 0080     		.2byte	0x8000
 2375 034c 0D       		.uleb128 0xd
 2376 034d 01       		.uleb128 0x1
ARM GAS  C:\Users\karth\AppData\Local\Temp\ccX3KBuT.s 			page 79


 2377 034e 53       		.byte	0x53
 2378 034f 01       		.uleb128 0x1
 2379 0350 44       		.byte	0x44
 2380 0351 0D       		.uleb128 0xd
 2381 0352 02       		.uleb128 0x2
 2382 0353 7D       		.byte	0x7d
 2383 0354 00       		.sleb128 0
 2384 0355 02       		.uleb128 0x2
 2385 0356 77       		.byte	0x77
 2386 0357 00       		.sleb128 0
 2387 0358 00       		.byte	0
 2388 0359 0E       		.uleb128 0xe
 2389 035a A6000000 		.4byte	.LVL51
 2390 035e 5A020000 		.4byte	0x25a
 2391 0362 00       		.byte	0
 2392 0363 10       		.uleb128 0x10
 2393 0364 76000000 		.4byte	.LASF42
 2394 0368 01       		.byte	0x1
 2395 0369 B8       		.byte	0xb8
 2396 036a 00000000 		.4byte	.LFB1
 2397 036e D8000000 		.4byte	.LFE1-.LFB1
 2398 0372 01       		.uleb128 0x1
 2399 0373 9C       		.byte	0x9c
 2400 0374 BF030000 		.4byte	0x3bf
 2401 0378 11       		.uleb128 0x11
 2402 0379 9C040000 		.4byte	.LASF31
 2403 037d 01       		.byte	0x1
 2404 037e BA       		.byte	0xba
 2405 037f 72000000 		.4byte	0x72
 2406 0383 12       		.uleb128 0x12
 2407 0384 12050000 		.4byte	.LASF39
 2408 0388 01       		.byte	0x1
 2409 0389 BB       		.byte	0xbb
 2410 038a 72000000 		.4byte	0x72
 2411 038e 47020000 		.4byte	.LLST12
 2412 0392 0E       		.uleb128 0xe
 2413 0393 06000000 		.4byte	.LVL52
 2414 0397 9C090000 		.4byte	0x99c
 2415 039b 0F       		.uleb128 0xf
 2416 039c 54000000 		.4byte	.LVL55
 2417 03a0 A7090000 		.4byte	0x9a7
 2418 03a4 AE030000 		.4byte	0x3ae
 2419 03a8 0D       		.uleb128 0xd
 2420 03a9 01       		.uleb128 0x1
 2421 03aa 50       		.byte	0x50
 2422 03ab 01       		.uleb128 0x1
 2423 03ac 33       		.byte	0x33
 2424 03ad 00       		.byte	0
 2425 03ae 0C       		.uleb128 0xc
 2426 03af B0000000 		.4byte	.LVL56
 2427 03b3 B2090000 		.4byte	0x9b2
 2428 03b7 0D       		.uleb128 0xd
 2429 03b8 01       		.uleb128 0x1
 2430 03b9 50       		.byte	0x50
 2431 03ba 02       		.uleb128 0x2
 2432 03bb 76       		.byte	0x76
 2433 03bc 00       		.sleb128 0
ARM GAS  C:\Users\karth\AppData\Local\Temp\ccX3KBuT.s 			page 80


 2434 03bd 00       		.byte	0
 2435 03be 00       		.byte	0
 2436 03bf 13       		.uleb128 0x13
 2437 03c0 61010000 		.4byte	.LASF43
 2438 03c4 01       		.byte	0x1
 2439 03c5 4901     		.2byte	0x149
 2440 03c7 00000000 		.4byte	.LFB2
 2441 03cb 28000000 		.4byte	.LFE2-.LFB2
 2442 03cf 01       		.uleb128 0x1
 2443 03d0 9C       		.byte	0x9c
 2444 03d1 E8030000 		.4byte	0x3e8
 2445 03d5 0E       		.uleb128 0xe
 2446 03d6 16000000 		.4byte	.LVL58
 2447 03da D9020000 		.4byte	0x2d9
 2448 03de 0E       		.uleb128 0xe
 2449 03df 20000000 		.4byte	.LVL59
 2450 03e3 63030000 		.4byte	0x363
 2451 03e7 00       		.byte	0
 2452 03e8 13       		.uleb128 0x13
 2453 03e9 AD000000 		.4byte	.LASF44
 2454 03ed 01       		.byte	0x1
 2455 03ee 6A01     		.2byte	0x16a
 2456 03f0 00000000 		.4byte	.LFB3
 2457 03f4 E4000000 		.4byte	.LFE3-.LFB3
 2458 03f8 01       		.uleb128 0x1
 2459 03f9 9C       		.byte	0x9c
 2460 03fa 3B040000 		.4byte	0x43b
 2461 03fe 0B       		.uleb128 0xb
 2462 03ff 12050000 		.4byte	.LASF39
 2463 0403 01       		.byte	0x1
 2464 0404 6C01     		.2byte	0x16c
 2465 0406 72000000 		.4byte	0x72
 2466 040a 5A020000 		.4byte	.LLST13
 2467 040e 0E       		.uleb128 0xe
 2468 040f 06000000 		.4byte	.LVL60
 2469 0413 9C090000 		.4byte	0x99c
 2470 0417 0F       		.uleb128 0xf
 2471 0418 4C000000 		.4byte	.LVL62
 2472 041c A7090000 		.4byte	0x9a7
 2473 0420 2A040000 		.4byte	0x42a
 2474 0424 0D       		.uleb128 0xd
 2475 0425 01       		.uleb128 0x1
 2476 0426 50       		.byte	0x50
 2477 0427 01       		.uleb128 0x1
 2478 0428 33       		.byte	0x33
 2479 0429 00       		.byte	0
 2480 042a 0C       		.uleb128 0xc
 2481 042b CC000000 		.4byte	.LVL63
 2482 042f B2090000 		.4byte	0x9b2
 2483 0433 0D       		.uleb128 0xd
 2484 0434 01       		.uleb128 0x1
 2485 0435 50       		.byte	0x50
 2486 0436 02       		.uleb128 0x2
 2487 0437 76       		.byte	0x76
 2488 0438 00       		.sleb128 0
 2489 0439 00       		.byte	0
 2490 043a 00       		.byte	0
ARM GAS  C:\Users\karth\AppData\Local\Temp\ccX3KBuT.s 			page 81


 2491 043b 13       		.uleb128 0x13
 2492 043c ED040000 		.4byte	.LASF45
 2493 0440 01       		.byte	0x1
 2494 0441 AD01     		.2byte	0x1ad
 2495 0443 00000000 		.4byte	.LFB4
 2496 0447 18000000 		.4byte	.LFE4-.LFB4
 2497 044b 01       		.uleb128 0x1
 2498 044c 9C       		.byte	0x9c
 2499 044d 72040000 		.4byte	0x472
 2500 0451 0A       		.uleb128 0xa
 2501 0452 05030000 		.4byte	.LASF46
 2502 0456 01       		.byte	0x1
 2503 0457 AD01     		.2byte	0x1ad
 2504 0459 72000000 		.4byte	0x72
 2505 045d 6D020000 		.4byte	.LLST14
 2506 0461 0B       		.uleb128 0xb
 2507 0462 FD050000 		.4byte	.LASF47
 2508 0466 01       		.byte	0x1
 2509 0467 AF01     		.2byte	0x1af
 2510 0469 72000000 		.4byte	0x72
 2511 046d 8E020000 		.4byte	.LLST15
 2512 0471 00       		.byte	0
 2513 0472 13       		.uleb128 0x13
 2514 0473 1D020000 		.4byte	.LASF48
 2515 0477 01       		.byte	0x1
 2516 0478 D101     		.2byte	0x1d1
 2517 047a 00000000 		.4byte	.LFB5
 2518 047e 18000000 		.4byte	.LFE5-.LFB5
 2519 0482 01       		.uleb128 0x1
 2520 0483 9C       		.byte	0x9c
 2521 0484 A9040000 		.4byte	0x4a9
 2522 0488 0A       		.uleb128 0xa
 2523 0489 EA020000 		.4byte	.LASF49
 2524 048d 01       		.byte	0x1
 2525 048e D101     		.2byte	0x1d1
 2526 0490 72000000 		.4byte	0x72
 2527 0494 AC020000 		.4byte	.LLST16
 2528 0498 0B       		.uleb128 0xb
 2529 0499 FD050000 		.4byte	.LASF47
 2530 049d 01       		.byte	0x1
 2531 049e D301     		.2byte	0x1d3
 2532 04a0 72000000 		.4byte	0x72
 2533 04a4 CD020000 		.4byte	.LLST17
 2534 04a8 00       		.byte	0
 2535 04a9 14       		.uleb128 0x14
 2536 04aa A6020000 		.4byte	.LASF53
 2537 04ae 01       		.byte	0x1
 2538 04af F901     		.2byte	0x1f9
 2539 04b1 72000000 		.4byte	0x72
 2540 04b5 00000000 		.4byte	.LFB6
 2541 04b9 74000000 		.4byte	.LFE6-.LFB6
 2542 04bd 01       		.uleb128 0x1
 2543 04be 9C       		.byte	0x9c
 2544 04bf 04050000 		.4byte	0x504
 2545 04c3 0A       		.uleb128 0xa
 2546 04c4 5C050000 		.4byte	.LASF50
 2547 04c8 01       		.byte	0x1
ARM GAS  C:\Users\karth\AppData\Local\Temp\ccX3KBuT.s 			page 82


 2548 04c9 F901     		.2byte	0x1f9
 2549 04cb BA000000 		.4byte	0xba
 2550 04cf EB020000 		.4byte	.LLST18
 2551 04d3 0B       		.uleb128 0xb
 2552 04d4 FD050000 		.4byte	.LASF47
 2553 04d8 01       		.byte	0x1
 2554 04d9 FB01     		.2byte	0x1fb
 2555 04db 7E000000 		.4byte	0x7e
 2556 04df 19030000 		.4byte	.LLST19
 2557 04e3 0B       		.uleb128 0xb
 2558 04e4 55050000 		.4byte	.LASF51
 2559 04e8 01       		.byte	0x1
 2560 04e9 FC01     		.2byte	0x1fc
 2561 04eb 72000000 		.4byte	0x72
 2562 04ef 51030000 		.4byte	.LLST20
 2563 04f3 0B       		.uleb128 0xb
 2564 04f4 E4040000 		.4byte	.LASF52
 2565 04f8 01       		.byte	0x1
 2566 04f9 FD01     		.2byte	0x1fd
 2567 04fb BA000000 		.4byte	0xba
 2568 04ff 70030000 		.4byte	.LLST21
 2569 0503 00       		.byte	0
 2570 0504 15       		.uleb128 0x15
 2571 0505 8D040000 		.4byte	.LASF54
 2572 0509 01       		.byte	0x1
 2573 050a 2802     		.2byte	0x228
 2574 050c 7E000000 		.4byte	0x7e
 2575 0510 00000000 		.4byte	.LFB7
 2576 0514 24000000 		.4byte	.LFE7-.LFB7
 2577 0518 01       		.uleb128 0x1
 2578 0519 9C       		.byte	0x9c
 2579 051a 3F050000 		.4byte	0x53f
 2580 051e 0B       		.uleb128 0xb
 2581 051f 86040000 		.4byte	.LASF55
 2582 0523 01       		.byte	0x1
 2583 0524 2A02     		.2byte	0x22a
 2584 0526 72000000 		.4byte	0x72
 2585 052a AF030000 		.4byte	.LLST22
 2586 052e 0B       		.uleb128 0xb
 2587 052f 58020000 		.4byte	.LASF34
 2588 0533 01       		.byte	0x1
 2589 0534 2B02     		.2byte	0x22b
 2590 0536 7E000000 		.4byte	0x7e
 2591 053a C2030000 		.4byte	.LLST23
 2592 053e 00       		.byte	0
 2593 053f 16       		.uleb128 0x16
 2594 0540 B0010000 		.4byte	.LASF56
 2595 0544 01       		.byte	0x1
 2596 0545 4A02     		.2byte	0x24a
 2597 0547 00000000 		.4byte	.LFB8
 2598 054b 10000000 		.4byte	.LFE8-.LFB8
 2599 054f 01       		.uleb128 0x1
 2600 0550 9C       		.byte	0x9c
 2601 0551 16       		.uleb128 0x16
 2602 0552 4D000000 		.4byte	.LASF57
 2603 0556 01       		.byte	0x1
 2604 0557 6102     		.2byte	0x261
ARM GAS  C:\Users\karth\AppData\Local\Temp\ccX3KBuT.s 			page 83


 2605 0559 00000000 		.4byte	.LFB9
 2606 055d 10000000 		.4byte	.LFE9-.LFB9
 2607 0561 01       		.uleb128 0x1
 2608 0562 9C       		.byte	0x9c
 2609 0563 15       		.uleb128 0x15
 2610 0564 24030000 		.4byte	.LASF58
 2611 0568 01       		.byte	0x1
 2612 0569 8402     		.2byte	0x284
 2613 056b 72000000 		.4byte	0x72
 2614 056f 00000000 		.4byte	.LFB10
 2615 0573 30000000 		.4byte	.LFE10-.LFB10
 2616 0577 01       		.uleb128 0x1
 2617 0578 9C       		.byte	0x9c
 2618 0579 9E050000 		.4byte	0x59e
 2619 057d 0A       		.uleb128 0xa
 2620 057e 73010000 		.4byte	.LASF59
 2621 0582 01       		.byte	0x1
 2622 0583 8402     		.2byte	0x284
 2623 0585 72000000 		.4byte	0x72
 2624 0589 E0030000 		.4byte	.LLST24
 2625 058d 0B       		.uleb128 0xb
 2626 058e 55050000 		.4byte	.LASF51
 2627 0592 01       		.byte	0x1
 2628 0593 8602     		.2byte	0x286
 2629 0595 72000000 		.4byte	0x72
 2630 0599 01040000 		.4byte	.LLST25
 2631 059d 00       		.byte	0
 2632 059e 15       		.uleb128 0x15
 2633 059f CF000000 		.4byte	.LASF60
 2634 05a3 01       		.byte	0x1
 2635 05a4 B302     		.2byte	0x2b3
 2636 05a6 96000000 		.4byte	0x96
 2637 05aa 00000000 		.4byte	.LFB11
 2638 05ae 48000000 		.4byte	.LFE11-.LFB11
 2639 05b2 01       		.uleb128 0x1
 2640 05b3 9C       		.byte	0x9c
 2641 05b4 D7050000 		.4byte	0x5d7
 2642 05b8 17       		.uleb128 0x17
 2643 05b9 04060000 		.4byte	.LASF61
 2644 05bd 01       		.byte	0x1
 2645 05be B502     		.2byte	0x2b5
 2646 05c0 96000000 		.4byte	0x96
 2647 05c4 01       		.uleb128 0x1
 2648 05c5 50       		.byte	0x50
 2649 05c6 0B       		.uleb128 0xb
 2650 05c7 EA020000 		.4byte	.LASF49
 2651 05cb 01       		.byte	0x1
 2652 05cc B602     		.2byte	0x2b6
 2653 05ce 72000000 		.4byte	0x72
 2654 05d2 1F040000 		.4byte	.LLST26
 2655 05d6 00       		.byte	0
 2656 05d7 15       		.uleb128 0x15
 2657 05d8 6C030000 		.4byte	.LASF62
 2658 05dc 01       		.byte	0x1
 2659 05dd E902     		.2byte	0x2e9
 2660 05df A2000000 		.4byte	0xa2
 2661 05e3 00000000 		.4byte	.LFB12
ARM GAS  C:\Users\karth\AppData\Local\Temp\ccX3KBuT.s 			page 84


 2662 05e7 50000000 		.4byte	.LFE12-.LFB12
 2663 05eb 01       		.uleb128 0x1
 2664 05ec 9C       		.byte	0x9c
 2665 05ed 12060000 		.4byte	0x612
 2666 05f1 0B       		.uleb128 0xb
 2667 05f2 04060000 		.4byte	.LASF61
 2668 05f6 01       		.byte	0x1
 2669 05f7 EB02     		.2byte	0x2eb
 2670 05f9 7E000000 		.4byte	0x7e
 2671 05fd 3D040000 		.4byte	.LLST27
 2672 0601 0B       		.uleb128 0xb
 2673 0602 EA020000 		.4byte	.LASF49
 2674 0606 01       		.byte	0x1
 2675 0607 EC02     		.2byte	0x2ec
 2676 0609 72000000 		.4byte	0x72
 2677 060d 66040000 		.4byte	.LLST28
 2678 0611 00       		.byte	0
 2679 0612 15       		.uleb128 0x15
 2680 0613 67050000 		.4byte	.LASF63
 2681 0617 01       		.byte	0x1
 2682 0618 2503     		.2byte	0x325
 2683 061a AE000000 		.4byte	0xae
 2684 061e 00000000 		.4byte	.LFB13
 2685 0622 6C000000 		.4byte	.LFE13-.LFB13
 2686 0626 01       		.uleb128 0x1
 2687 0627 9C       		.byte	0x9c
 2688 0628 4D060000 		.4byte	0x64d
 2689 062c 0B       		.uleb128 0xb
 2690 062d 04060000 		.4byte	.LASF61
 2691 0631 01       		.byte	0x1
 2692 0632 2703     		.2byte	0x327
 2693 0634 8A000000 		.4byte	0x8a
 2694 0638 84040000 		.4byte	.LLST29
 2695 063c 0B       		.uleb128 0xb
 2696 063d EA020000 		.4byte	.LASF49
 2697 0641 01       		.byte	0x1
 2698 0642 2803     		.2byte	0x328
 2699 0644 72000000 		.4byte	0x72
 2700 0648 E5040000 		.4byte	.LLST30
 2701 064c 00       		.byte	0
 2702 064d 13       		.uleb128 0x13
 2703 064e 79050000 		.4byte	.LASF64
 2704 0652 01       		.byte	0x1
 2705 0653 8203     		.2byte	0x382
 2706 0655 00000000 		.4byte	.LFB14
 2707 0659 0C000000 		.4byte	.LFE14-.LFB14
 2708 065d 01       		.uleb128 0x1
 2709 065e 9C       		.byte	0x9c
 2710 065f 72060000 		.4byte	0x672
 2711 0663 18       		.uleb128 0x18
 2712 0664 01050000 		.4byte	.LASF65
 2713 0668 01       		.byte	0x1
 2714 0669 8203     		.2byte	0x382
 2715 066b AE000000 		.4byte	0xae
 2716 066f 01       		.uleb128 0x1
 2717 0670 50       		.byte	0x50
 2718 0671 00       		.byte	0
ARM GAS  C:\Users\karth\AppData\Local\Temp\ccX3KBuT.s 			page 85


 2719 0672 13       		.uleb128 0x13
 2720 0673 D1020000 		.4byte	.LASF66
 2721 0677 01       		.byte	0x1
 2722 0678 A503     		.2byte	0x3a5
 2723 067a 00000000 		.4byte	.LFB15
 2724 067e 0C000000 		.4byte	.LFE15-.LFB15
 2725 0682 01       		.uleb128 0x1
 2726 0683 9C       		.byte	0x9c
 2727 0684 97060000 		.4byte	0x697
 2728 0688 18       		.uleb128 0x18
 2729 0689 07000000 		.4byte	.LASF67
 2730 068d 01       		.byte	0x1
 2731 068e A503     		.2byte	0x3a5
 2732 0690 AE000000 		.4byte	0xae
 2733 0694 01       		.uleb128 0x1
 2734 0695 50       		.byte	0x50
 2735 0696 00       		.byte	0
 2736 0697 15       		.uleb128 0x15
 2737 0698 35020000 		.4byte	.LASF68
 2738 069c 01       		.byte	0x1
 2739 069d C003     		.2byte	0x3c0
 2740 069f A2000000 		.4byte	0xa2
 2741 06a3 00000000 		.4byte	.LFB16
 2742 06a7 3C000000 		.4byte	.LFE16-.LFB16
 2743 06ab 01       		.uleb128 0x1
 2744 06ac 9C       		.byte	0x9c
 2745 06ad D0060000 		.4byte	0x6d0
 2746 06b1 0A       		.uleb128 0xa
 2747 06b2 08050000 		.4byte	.LASF69
 2748 06b6 01       		.byte	0x1
 2749 06b7 C003     		.2byte	0x3c0
 2750 06b9 AE000000 		.4byte	0xae
 2751 06bd 0E050000 		.4byte	.LLST31
 2752 06c1 17       		.uleb128 0x17
 2753 06c2 93020000 		.4byte	.LASF70
 2754 06c6 01       		.byte	0x1
 2755 06c7 C303     		.2byte	0x3c3
 2756 06c9 A2000000 		.4byte	0xa2
 2757 06cd 01       		.uleb128 0x1
 2758 06ce 50       		.byte	0x50
 2759 06cf 00       		.byte	0
 2760 06d0 14       		.uleb128 0x14
 2761 06d1 C7040000 		.4byte	.LASF71
 2762 06d5 01       		.byte	0x1
 2763 06d6 FD03     		.2byte	0x3fd
 2764 06d8 BA000000 		.4byte	0xba
 2765 06dc 00000000 		.4byte	.LFB17
 2766 06e0 40000000 		.4byte	.LFE17-.LFB17
 2767 06e4 01       		.uleb128 0x1
 2768 06e5 9C       		.byte	0x9c
 2769 06e6 09070000 		.4byte	0x709
 2770 06ea 0A       		.uleb128 0xa
 2771 06eb 08050000 		.4byte	.LASF69
 2772 06ef 01       		.byte	0x1
 2773 06f0 FD03     		.2byte	0x3fd
 2774 06f2 AE000000 		.4byte	0xae
 2775 06f6 2C050000 		.4byte	.LLST32
ARM GAS  C:\Users\karth\AppData\Local\Temp\ccX3KBuT.s 			page 86


 2776 06fa 17       		.uleb128 0x17
 2777 06fb 06010000 		.4byte	.LASF72
 2778 06ff 01       		.byte	0x1
 2779 0700 0004     		.2byte	0x400
 2780 0702 BA000000 		.4byte	0xba
 2781 0706 01       		.uleb128 0x1
 2782 0707 50       		.byte	0x50
 2783 0708 00       		.byte	0
 2784 0709 15       		.uleb128 0x15
 2785 070a 0B060000 		.4byte	.LASF73
 2786 070e 01       		.byte	0x1
 2787 070f 3F04     		.2byte	0x43f
 2788 0711 AE000000 		.4byte	0xae
 2789 0715 00000000 		.4byte	.LFB18
 2790 0719 80000000 		.4byte	.LFE18-.LFB18
 2791 071d 01       		.uleb128 0x1
 2792 071e 9C       		.byte	0x9c
 2793 071f 74070000 		.4byte	0x774
 2794 0723 0A       		.uleb128 0xa
 2795 0724 08050000 		.4byte	.LASF69
 2796 0728 01       		.byte	0x1
 2797 0729 3F04     		.2byte	0x43f
 2798 072b AE000000 		.4byte	0xae
 2799 072f 65050000 		.4byte	.LLST33
 2800 0733 0B       		.uleb128 0xb
 2801 0734 A9010000 		.4byte	.LASF74
 2802 0738 01       		.byte	0x1
 2803 0739 4204     		.2byte	0x442
 2804 073b AE000000 		.4byte	0xae
 2805 073f 83050000 		.4byte	.LLST34
 2806 0743 0B       		.uleb128 0xb
 2807 0744 75040000 		.4byte	.LASF75
 2808 0748 01       		.byte	0x1
 2809 0749 4304     		.2byte	0x443
 2810 074b AE000000 		.4byte	0xae
 2811 074f A6050000 		.4byte	.LLST35
 2812 0753 0B       		.uleb128 0xb
 2813 0754 7B040000 		.4byte	.LASF76
 2814 0758 01       		.byte	0x1
 2815 0759 4404     		.2byte	0x444
 2816 075b AE000000 		.4byte	0xae
 2817 075f C9050000 		.4byte	.LLST36
 2818 0763 0B       		.uleb128 0xb
 2819 0764 58040000 		.4byte	.LASF30
 2820 0768 01       		.byte	0x1
 2821 0769 4504     		.2byte	0x445
 2822 076b 72000000 		.4byte	0x72
 2823 076f E8050000 		.4byte	.LLST37
 2824 0773 00       		.byte	0
 2825 0774 13       		.uleb128 0x13
 2826 0775 79020000 		.4byte	.LASF77
 2827 0779 01       		.byte	0x1
 2828 077a 1006     		.2byte	0x610
 2829 077c 00000000 		.4byte	.LFB20
 2830 0780 60000000 		.4byte	.LFE20-.LFB20
 2831 0784 01       		.uleb128 0x1
 2832 0785 9C       		.byte	0x9c
ARM GAS  C:\Users\karth\AppData\Local\Temp\ccX3KBuT.s 			page 87


 2833 0786 E9070000 		.4byte	0x7e9
 2834 078a 0A       		.uleb128 0xa
 2835 078b 9C040000 		.4byte	.LASF31
 2836 078f 01       		.byte	0x1
 2837 0790 1006     		.2byte	0x610
 2838 0792 72000000 		.4byte	0x72
 2839 0796 07060000 		.4byte	.LLST38
 2840 079a 0A       		.uleb128 0xa
 2841 079b DC040000 		.4byte	.LASF78
 2842 079f 01       		.byte	0x1
 2843 07a0 1006     		.2byte	0x610
 2844 07a2 72000000 		.4byte	0x72
 2845 07a6 41060000 		.4byte	.LLST39
 2846 07aa 0E       		.uleb128 0xe
 2847 07ab 1E000000 		.4byte	.LVL154
 2848 07af E8030000 		.4byte	0x3e8
 2849 07b3 0F       		.uleb128 0xf
 2850 07b4 24000000 		.4byte	.LVL155
 2851 07b8 5A020000 		.4byte	0x25a
 2852 07bc C7070000 		.4byte	0x7c7
 2853 07c0 0D       		.uleb128 0xd
 2854 07c1 01       		.uleb128 0x1
 2855 07c2 50       		.byte	0x50
 2856 07c3 02       		.uleb128 0x2
 2857 07c4 74       		.byte	0x74
 2858 07c5 00       		.sleb128 0
 2859 07c6 00       		.byte	0
 2860 07c7 0E       		.uleb128 0xe
 2861 07c8 42000000 		.4byte	.LVL156
 2862 07cc BF030000 		.4byte	0x3bf
 2863 07d0 0E       		.uleb128 0xe
 2864 07d1 46000000 		.4byte	.LVL157
 2865 07d5 3F050000 		.4byte	0x53f
 2866 07d9 0C       		.uleb128 0xc
 2867 07da 4E000000 		.4byte	.LVL160
 2868 07de 91090000 		.4byte	0x991
 2869 07e2 0D       		.uleb128 0xd
 2870 07e3 01       		.uleb128 0x1
 2871 07e4 50       		.byte	0x50
 2872 07e5 01       		.uleb128 0x1
 2873 07e6 30       		.byte	0x30
 2874 07e7 00       		.byte	0
 2875 07e8 00       		.byte	0
 2876 07e9 15       		.uleb128 0x15
 2877 07ea 4C040000 		.4byte	.LASF79
 2878 07ee 01       		.byte	0x1
 2879 07ef E206     		.2byte	0x6e2
 2880 07f1 96000000 		.4byte	0x96
 2881 07f5 00000000 		.4byte	.LFB23
 2882 07f9 28000000 		.4byte	.LFE23-.LFB23
 2883 07fd 01       		.uleb128 0x1
 2884 07fe 9C       		.byte	0x9c
 2885 07ff 42080000 		.4byte	0x842
 2886 0803 0B       		.uleb128 0xb
 2887 0804 04060000 		.4byte	.LASF61
 2888 0808 01       		.byte	0x1
 2889 0809 E406     		.2byte	0x6e4
ARM GAS  C:\Users\karth\AppData\Local\Temp\ccX3KBuT.s 			page 88


 2890 080b 96000000 		.4byte	0x96
 2891 080f 7B060000 		.4byte	.LLST40
 2892 0813 0E       		.uleb128 0xe
 2893 0814 10000000 		.4byte	.LVL161
 2894 0818 3F050000 		.4byte	0x53f
 2895 081c 0F       		.uleb128 0xf
 2896 081d 16000000 		.4byte	.LVL162
 2897 0821 63050000 		.4byte	0x563
 2898 0825 2F080000 		.4byte	0x82f
 2899 0829 0D       		.uleb128 0xd
 2900 082a 01       		.uleb128 0x1
 2901 082b 50       		.byte	0x50
 2902 082c 01       		.uleb128 0x1
 2903 082d 30       		.byte	0x30
 2904 082e 00       		.byte	0
 2905 082f 0E       		.uleb128 0xe
 2906 0830 1A000000 		.4byte	.LVL163
 2907 0834 9E050000 		.4byte	0x59e
 2908 0838 0E       		.uleb128 0xe
 2909 0839 20000000 		.4byte	.LVL165
 2910 083d 51050000 		.4byte	0x551
 2911 0841 00       		.byte	0
 2912 0842 15       		.uleb128 0x15
 2913 0843 30000000 		.4byte	.LASF80
 2914 0847 01       		.byte	0x1
 2915 0848 0307     		.2byte	0x703
 2916 084a A2000000 		.4byte	0xa2
 2917 084e 00000000 		.4byte	.LFB24
 2918 0852 28000000 		.4byte	.LFE24-.LFB24
 2919 0856 01       		.uleb128 0x1
 2920 0857 9C       		.byte	0x9c
 2921 0858 9B080000 		.4byte	0x89b
 2922 085c 0B       		.uleb128 0xb
 2923 085d 04060000 		.4byte	.LASF61
 2924 0861 01       		.byte	0x1
 2925 0862 0507     		.2byte	0x705
 2926 0864 A2000000 		.4byte	0xa2
 2927 0868 8E060000 		.4byte	.LLST41
 2928 086c 0E       		.uleb128 0xe
 2929 086d 10000000 		.4byte	.LVL167
 2930 0871 3F050000 		.4byte	0x53f
 2931 0875 0F       		.uleb128 0xf
 2932 0876 16000000 		.4byte	.LVL168
 2933 087a 63050000 		.4byte	0x563
 2934 087e 88080000 		.4byte	0x888
 2935 0882 0D       		.uleb128 0xd
 2936 0883 01       		.uleb128 0x1
 2937 0884 50       		.byte	0x50
 2938 0885 01       		.uleb128 0x1
 2939 0886 30       		.byte	0x30
 2940 0887 00       		.byte	0
 2941 0888 0E       		.uleb128 0xe
 2942 0889 1A000000 		.4byte	.LVL169
 2943 088d D7050000 		.4byte	0x5d7
 2944 0891 0E       		.uleb128 0xe
 2945 0892 20000000 		.4byte	.LVL171
 2946 0896 51050000 		.4byte	0x551
ARM GAS  C:\Users\karth\AppData\Local\Temp\ccX3KBuT.s 			page 89


 2947 089a 00       		.byte	0
 2948 089b 15       		.uleb128 0x15
 2949 089c 3F010000 		.4byte	.LASF81
 2950 08a0 01       		.byte	0x1
 2951 08a1 2407     		.2byte	0x724
 2952 08a3 AE000000 		.4byte	0xae
 2953 08a7 00000000 		.4byte	.LFB25
 2954 08ab 28000000 		.4byte	.LFE25-.LFB25
 2955 08af 01       		.uleb128 0x1
 2956 08b0 9C       		.byte	0x9c
 2957 08b1 F4080000 		.4byte	0x8f4
 2958 08b5 0B       		.uleb128 0xb
 2959 08b6 04060000 		.4byte	.LASF61
 2960 08ba 01       		.byte	0x1
 2961 08bb 2607     		.2byte	0x726
 2962 08bd AE000000 		.4byte	0xae
 2963 08c1 A1060000 		.4byte	.LLST42
 2964 08c5 0E       		.uleb128 0xe
 2965 08c6 10000000 		.4byte	.LVL173
 2966 08ca 3F050000 		.4byte	0x53f
 2967 08ce 0F       		.uleb128 0xf
 2968 08cf 16000000 		.4byte	.LVL174
 2969 08d3 63050000 		.4byte	0x563
 2970 08d7 E1080000 		.4byte	0x8e1
 2971 08db 0D       		.uleb128 0xd
 2972 08dc 01       		.uleb128 0x1
 2973 08dd 50       		.byte	0x50
 2974 08de 01       		.uleb128 0x1
 2975 08df 30       		.byte	0x30
 2976 08e0 00       		.byte	0
 2977 08e1 0E       		.uleb128 0xe
 2978 08e2 1A000000 		.4byte	.LVL175
 2979 08e6 12060000 		.4byte	0x612
 2980 08ea 0E       		.uleb128 0xe
 2981 08eb 20000000 		.4byte	.LVL177
 2982 08ef 51050000 		.4byte	0x551
 2983 08f3 00       		.byte	0
 2984 08f4 19       		.uleb128 0x19
 2985 08f5 36010000 		.4byte	0x136
 2986 08f9 04090000 		.4byte	0x904
 2987 08fd 1A       		.uleb128 0x1a
 2988 08fe 0E010000 		.4byte	0x10e
 2989 0902 00       		.byte	0
 2990 0903 00       		.byte	0
 2991 0904 1B       		.uleb128 0x1b
 2992 0905 3D000000 		.4byte	.LASF82
 2993 0909 01       		.byte	0x1
 2994 090a 3D       		.byte	0x3d
 2995 090b F4080000 		.4byte	0x8f4
 2996 090f 05       		.uleb128 0x5
 2997 0910 03       		.byte	0x3
 2998 0911 00000000 		.4byte	ADC_1_gcor
 2999 0915 1C       		.uleb128 0x1c
 3000 0916 0C010000 		.4byte	.LASF83
 3001 091a 01       		.byte	0x1
 3002 091b 2C       		.byte	0x2c
 3003 091c 72000000 		.4byte	0x72
ARM GAS  C:\Users\karth\AppData\Local\Temp\ccX3KBuT.s 			page 90


 3004 0920 05       		.uleb128 0x5
 3005 0921 03       		.byte	0x3
 3006 0922 00000000 		.4byte	ADC_1_initVar
 3007 0926 1C       		.uleb128 0x1c
 3008 0927 30010000 		.4byte	.LASF84
 3009 092b 01       		.byte	0x1
 3010 092c 24       		.byte	0x24
 3011 092d E0000000 		.4byte	0xe0
 3012 0931 05       		.uleb128 0x5
 3013 0932 03       		.byte	0x3
 3014 0933 00000000 		.4byte	ADC_1_convDone
 3015 0937 1C       		.uleb128 0x1c
 3016 0938 4C010000 		.4byte	.LASF85
 3017 093c 01       		.byte	0x1
 3018 093d 29       		.byte	0x29
 3019 093e E0000000 		.4byte	0xe0
 3020 0942 05       		.uleb128 0x5
 3021 0943 03       		.byte	0x3
 3022 0944 00000000 		.4byte	ADC_1_stopConversion
 3023 0948 1C       		.uleb128 0x1c
 3024 0949 23050000 		.4byte	.LASF86
 3025 094d 01       		.byte	0x1
 3026 094e 2F       		.byte	0x2f
 3027 094f E0000000 		.4byte	0xe0
 3028 0953 05       		.uleb128 0x5
 3029 0954 03       		.byte	0x3
 3030 0955 00000000 		.4byte	ADC_1_started
 3031 0959 1C       		.uleb128 0x1c
 3032 095a 7E030000 		.4byte	.LASF87
 3033 095e 01       		.byte	0x1
 3034 095f 32       		.byte	0x32
 3035 0960 E0000000 		.4byte	0xe0
 3036 0964 05       		.uleb128 0x5
 3037 0965 03       		.byte	0x3
 3038 0966 00000000 		.4byte	ADC_1_Config
 3039 096a 1C       		.uleb128 0x1c
 3040 096b 4B020000 		.4byte	.LASF88
 3041 096f 01       		.byte	0x1
 3042 0970 34       		.byte	0x34
 3043 0971 7B090000 		.4byte	0x97b
 3044 0975 05       		.uleb128 0x5
 3045 0976 03       		.byte	0x3
 3046 0977 00000000 		.4byte	ADC_1_Offset
 3047 097b 05       		.uleb128 0x5
 3048 097c AE000000 		.4byte	0xae
 3049 0980 1C       		.uleb128 0x1c
 3050 0981 10030000 		.4byte	.LASF89
 3051 0985 01       		.byte	0x1
 3052 0986 35       		.byte	0x35
 3053 0987 7B090000 		.4byte	0x97b
 3054 098b 05       		.uleb128 0x5
 3055 098c 03       		.byte	0x3
 3056 098d 00000000 		.4byte	ADC_1_CountsPerVolt
 3057 0991 1D       		.uleb128 0x1d
 3058 0992 57030000 		.4byte	.LASF90
 3059 0996 57030000 		.4byte	.LASF90
 3060 099a 04       		.byte	0x4
ARM GAS  C:\Users\karth\AppData\Local\Temp\ccX3KBuT.s 			page 91


 3061 099b 7F       		.byte	0x7f
 3062 099c 1D       		.uleb128 0x1d
 3063 099d F3010000 		.4byte	.LASF91
 3064 09a1 F3010000 		.4byte	.LASF91
 3065 09a5 04       		.byte	0x4
 3066 09a6 7D       		.byte	0x7d
 3067 09a7 1D       		.uleb128 0x1d
 3068 09a8 F5000000 		.4byte	.LASF92
 3069 09ac F5000000 		.4byte	.LASF92
 3070 09b0 04       		.byte	0x4
 3071 09b1 77       		.byte	0x77
 3072 09b2 1D       		.uleb128 0x1d
 3073 09b3 0F000000 		.4byte	.LASF93
 3074 09b7 0F000000 		.4byte	.LASF93
 3075 09bb 04       		.byte	0x4
 3076 09bc 7E       		.byte	0x7e
 3077 09bd 1D       		.uleb128 0x1d
 3078 09be 31050000 		.4byte	.LASF94
 3079 09c2 31050000 		.4byte	.LASF94
 3080 09c6 05       		.byte	0x5
 3081 09c7 2F       		.byte	0x2f
 3082 09c8 1D       		.uleb128 0x1d
 3083 09c9 7B010000 		.4byte	.LASF95
 3084 09cd 7B010000 		.4byte	.LASF95
 3085 09d1 06       		.byte	0x6
 3086 09d2 2F       		.byte	0x2f
 3087 09d3 1D       		.uleb128 0x1d
 3088 09d4 21010000 		.4byte	.LASF96
 3089 09d8 21010000 		.4byte	.LASF96
 3090 09dc 04       		.byte	0x4
 3091 09dd 88       		.byte	0x88
 3092 09de 1D       		.uleb128 0x1d
 3093 09df 9D030000 		.4byte	.LASF97
 3094 09e3 9D030000 		.4byte	.LASF97
 3095 09e7 05       		.byte	0x5
 3096 09e8 32       		.byte	0x32
 3097 09e9 1D       		.uleb128 0x1d
 3098 09ea D5010000 		.4byte	.LASF98
 3099 09ee D5010000 		.4byte	.LASF98
 3100 09f2 06       		.byte	0x6
 3101 09f3 32       		.byte	0x32
 3102 09f4 1D       		.uleb128 0x1d
 3103 09f5 F4020000 		.4byte	.LASF99
 3104 09f9 F4020000 		.4byte	.LASF99
 3105 09fd 04       		.byte	0x4
 3106 09fe 8B       		.byte	0x8b
 3107 09ff 00       		.byte	0
 3108              		.section	.debug_abbrev,"",%progbits
 3109              	.Ldebug_abbrev0:
 3110 0000 01       		.uleb128 0x1
 3111 0001 11       		.uleb128 0x11
 3112 0002 01       		.byte	0x1
 3113 0003 25       		.uleb128 0x25
 3114 0004 0E       		.uleb128 0xe
 3115 0005 13       		.uleb128 0x13
 3116 0006 0B       		.uleb128 0xb
 3117 0007 03       		.uleb128 0x3
ARM GAS  C:\Users\karth\AppData\Local\Temp\ccX3KBuT.s 			page 92


 3118 0008 0E       		.uleb128 0xe
 3119 0009 1B       		.uleb128 0x1b
 3120 000a 0E       		.uleb128 0xe
 3121 000b 55       		.uleb128 0x55
 3122 000c 17       		.uleb128 0x17
 3123 000d 11       		.uleb128 0x11
 3124 000e 01       		.uleb128 0x1
 3125 000f 10       		.uleb128 0x10
 3126 0010 17       		.uleb128 0x17
 3127 0011 00       		.byte	0
 3128 0012 00       		.byte	0
 3129 0013 02       		.uleb128 0x2
 3130 0014 24       		.uleb128 0x24
 3131 0015 00       		.byte	0
 3132 0016 0B       		.uleb128 0xb
 3133 0017 0B       		.uleb128 0xb
 3134 0018 3E       		.uleb128 0x3e
 3135 0019 0B       		.uleb128 0xb
 3136 001a 03       		.uleb128 0x3
 3137 001b 0E       		.uleb128 0xe
 3138 001c 00       		.byte	0
 3139 001d 00       		.byte	0
 3140 001e 03       		.uleb128 0x3
 3141 001f 24       		.uleb128 0x24
 3142 0020 00       		.byte	0
 3143 0021 0B       		.uleb128 0xb
 3144 0022 0B       		.uleb128 0xb
 3145 0023 3E       		.uleb128 0x3e
 3146 0024 0B       		.uleb128 0xb
 3147 0025 03       		.uleb128 0x3
 3148 0026 08       		.uleb128 0x8
 3149 0027 00       		.byte	0
 3150 0028 00       		.byte	0
 3151 0029 04       		.uleb128 0x4
 3152 002a 16       		.uleb128 0x16
 3153 002b 00       		.byte	0
 3154 002c 03       		.uleb128 0x3
 3155 002d 0E       		.uleb128 0xe
 3156 002e 3A       		.uleb128 0x3a
 3157 002f 0B       		.uleb128 0xb
 3158 0030 3B       		.uleb128 0x3b
 3159 0031 05       		.uleb128 0x5
 3160 0032 49       		.uleb128 0x49
 3161 0033 13       		.uleb128 0x13
 3162 0034 00       		.byte	0
 3163 0035 00       		.byte	0
 3164 0036 05       		.uleb128 0x5
 3165 0037 35       		.uleb128 0x35
 3166 0038 00       		.byte	0
 3167 0039 49       		.uleb128 0x49
 3168 003a 13       		.uleb128 0x13
 3169 003b 00       		.byte	0
 3170 003c 00       		.byte	0
 3171 003d 06       		.uleb128 0x6
 3172 003e 13       		.uleb128 0x13
 3173 003f 01       		.byte	0x1
 3174 0040 0B       		.uleb128 0xb
ARM GAS  C:\Users\karth\AppData\Local\Temp\ccX3KBuT.s 			page 93


 3175 0041 0B       		.uleb128 0xb
 3176 0042 3A       		.uleb128 0x3a
 3177 0043 0B       		.uleb128 0xb
 3178 0044 3B       		.uleb128 0x3b
 3179 0045 0B       		.uleb128 0xb
 3180 0046 01       		.uleb128 0x1
 3181 0047 13       		.uleb128 0x13
 3182 0048 00       		.byte	0
 3183 0049 00       		.byte	0
 3184 004a 07       		.uleb128 0x7
 3185 004b 0D       		.uleb128 0xd
 3186 004c 00       		.byte	0
 3187 004d 03       		.uleb128 0x3
 3188 004e 0E       		.uleb128 0xe
 3189 004f 3A       		.uleb128 0x3a
 3190 0050 0B       		.uleb128 0xb
 3191 0051 3B       		.uleb128 0x3b
 3192 0052 0B       		.uleb128 0xb
 3193 0053 49       		.uleb128 0x49
 3194 0054 13       		.uleb128 0x13
 3195 0055 38       		.uleb128 0x38
 3196 0056 0B       		.uleb128 0xb
 3197 0057 00       		.byte	0
 3198 0058 00       		.byte	0
 3199 0059 08       		.uleb128 0x8
 3200 005a 16       		.uleb128 0x16
 3201 005b 00       		.byte	0
 3202 005c 03       		.uleb128 0x3
 3203 005d 0E       		.uleb128 0xe
 3204 005e 3A       		.uleb128 0x3a
 3205 005f 0B       		.uleb128 0xb
 3206 0060 3B       		.uleb128 0x3b
 3207 0061 0B       		.uleb128 0xb
 3208 0062 49       		.uleb128 0x49
 3209 0063 13       		.uleb128 0x13
 3210 0064 00       		.byte	0
 3211 0065 00       		.byte	0
 3212 0066 09       		.uleb128 0x9
 3213 0067 2E       		.uleb128 0x2e
 3214 0068 01       		.byte	0x1
 3215 0069 03       		.uleb128 0x3
 3216 006a 0E       		.uleb128 0xe
 3217 006b 3A       		.uleb128 0x3a
 3218 006c 0B       		.uleb128 0xb
 3219 006d 3B       		.uleb128 0x3b
 3220 006e 05       		.uleb128 0x5
 3221 006f 27       		.uleb128 0x27
 3222 0070 19       		.uleb128 0x19
 3223 0071 11       		.uleb128 0x11
 3224 0072 01       		.uleb128 0x1
 3225 0073 12       		.uleb128 0x12
 3226 0074 06       		.uleb128 0x6
 3227 0075 40       		.uleb128 0x40
 3228 0076 18       		.uleb128 0x18
 3229 0077 9742     		.uleb128 0x2117
 3230 0079 19       		.uleb128 0x19
 3231 007a 01       		.uleb128 0x1
ARM GAS  C:\Users\karth\AppData\Local\Temp\ccX3KBuT.s 			page 94


 3232 007b 13       		.uleb128 0x13
 3233 007c 00       		.byte	0
 3234 007d 00       		.byte	0
 3235 007e 0A       		.uleb128 0xa
 3236 007f 05       		.uleb128 0x5
 3237 0080 00       		.byte	0
 3238 0081 03       		.uleb128 0x3
 3239 0082 0E       		.uleb128 0xe
 3240 0083 3A       		.uleb128 0x3a
 3241 0084 0B       		.uleb128 0xb
 3242 0085 3B       		.uleb128 0x3b
 3243 0086 05       		.uleb128 0x5
 3244 0087 49       		.uleb128 0x49
 3245 0088 13       		.uleb128 0x13
 3246 0089 02       		.uleb128 0x2
 3247 008a 17       		.uleb128 0x17
 3248 008b 00       		.byte	0
 3249 008c 00       		.byte	0
 3250 008d 0B       		.uleb128 0xb
 3251 008e 34       		.uleb128 0x34
 3252 008f 00       		.byte	0
 3253 0090 03       		.uleb128 0x3
 3254 0091 0E       		.uleb128 0xe
 3255 0092 3A       		.uleb128 0x3a
 3256 0093 0B       		.uleb128 0xb
 3257 0094 3B       		.uleb128 0x3b
 3258 0095 05       		.uleb128 0x5
 3259 0096 49       		.uleb128 0x49
 3260 0097 13       		.uleb128 0x13
 3261 0098 02       		.uleb128 0x2
 3262 0099 17       		.uleb128 0x17
 3263 009a 00       		.byte	0
 3264 009b 00       		.byte	0
 3265 009c 0C       		.uleb128 0xc
 3266 009d 898201   		.uleb128 0x4109
 3267 00a0 01       		.byte	0x1
 3268 00a1 11       		.uleb128 0x11
 3269 00a2 01       		.uleb128 0x1
 3270 00a3 31       		.uleb128 0x31
 3271 00a4 13       		.uleb128 0x13
 3272 00a5 00       		.byte	0
 3273 00a6 00       		.byte	0
 3274 00a7 0D       		.uleb128 0xd
 3275 00a8 8A8201   		.uleb128 0x410a
 3276 00ab 00       		.byte	0
 3277 00ac 02       		.uleb128 0x2
 3278 00ad 18       		.uleb128 0x18
 3279 00ae 9142     		.uleb128 0x2111
 3280 00b0 18       		.uleb128 0x18
 3281 00b1 00       		.byte	0
 3282 00b2 00       		.byte	0
 3283 00b3 0E       		.uleb128 0xe
 3284 00b4 898201   		.uleb128 0x4109
 3285 00b7 00       		.byte	0
 3286 00b8 11       		.uleb128 0x11
 3287 00b9 01       		.uleb128 0x1
 3288 00ba 31       		.uleb128 0x31
ARM GAS  C:\Users\karth\AppData\Local\Temp\ccX3KBuT.s 			page 95


 3289 00bb 13       		.uleb128 0x13
 3290 00bc 00       		.byte	0
 3291 00bd 00       		.byte	0
 3292 00be 0F       		.uleb128 0xf
 3293 00bf 898201   		.uleb128 0x4109
 3294 00c2 01       		.byte	0x1
 3295 00c3 11       		.uleb128 0x11
 3296 00c4 01       		.uleb128 0x1
 3297 00c5 31       		.uleb128 0x31
 3298 00c6 13       		.uleb128 0x13
 3299 00c7 01       		.uleb128 0x1
 3300 00c8 13       		.uleb128 0x13
 3301 00c9 00       		.byte	0
 3302 00ca 00       		.byte	0
 3303 00cb 10       		.uleb128 0x10
 3304 00cc 2E       		.uleb128 0x2e
 3305 00cd 01       		.byte	0x1
 3306 00ce 3F       		.uleb128 0x3f
 3307 00cf 19       		.uleb128 0x19
 3308 00d0 03       		.uleb128 0x3
 3309 00d1 0E       		.uleb128 0xe
 3310 00d2 3A       		.uleb128 0x3a
 3311 00d3 0B       		.uleb128 0xb
 3312 00d4 3B       		.uleb128 0x3b
 3313 00d5 0B       		.uleb128 0xb
 3314 00d6 27       		.uleb128 0x27
 3315 00d7 19       		.uleb128 0x19
 3316 00d8 11       		.uleb128 0x11
 3317 00d9 01       		.uleb128 0x1
 3318 00da 12       		.uleb128 0x12
 3319 00db 06       		.uleb128 0x6
 3320 00dc 40       		.uleb128 0x40
 3321 00dd 18       		.uleb128 0x18
 3322 00de 9742     		.uleb128 0x2117
 3323 00e0 19       		.uleb128 0x19
 3324 00e1 01       		.uleb128 0x1
 3325 00e2 13       		.uleb128 0x13
 3326 00e3 00       		.byte	0
 3327 00e4 00       		.byte	0
 3328 00e5 11       		.uleb128 0x11
 3329 00e6 34       		.uleb128 0x34
 3330 00e7 00       		.byte	0
 3331 00e8 03       		.uleb128 0x3
 3332 00e9 0E       		.uleb128 0xe
 3333 00ea 3A       		.uleb128 0x3a
 3334 00eb 0B       		.uleb128 0xb
 3335 00ec 3B       		.uleb128 0x3b
 3336 00ed 0B       		.uleb128 0xb
 3337 00ee 49       		.uleb128 0x49
 3338 00ef 13       		.uleb128 0x13
 3339 00f0 00       		.byte	0
 3340 00f1 00       		.byte	0
 3341 00f2 12       		.uleb128 0x12
 3342 00f3 34       		.uleb128 0x34
 3343 00f4 00       		.byte	0
 3344 00f5 03       		.uleb128 0x3
 3345 00f6 0E       		.uleb128 0xe
ARM GAS  C:\Users\karth\AppData\Local\Temp\ccX3KBuT.s 			page 96


 3346 00f7 3A       		.uleb128 0x3a
 3347 00f8 0B       		.uleb128 0xb
 3348 00f9 3B       		.uleb128 0x3b
 3349 00fa 0B       		.uleb128 0xb
 3350 00fb 49       		.uleb128 0x49
 3351 00fc 13       		.uleb128 0x13
 3352 00fd 02       		.uleb128 0x2
 3353 00fe 17       		.uleb128 0x17
 3354 00ff 00       		.byte	0
 3355 0100 00       		.byte	0
 3356 0101 13       		.uleb128 0x13
 3357 0102 2E       		.uleb128 0x2e
 3358 0103 01       		.byte	0x1
 3359 0104 3F       		.uleb128 0x3f
 3360 0105 19       		.uleb128 0x19
 3361 0106 03       		.uleb128 0x3
 3362 0107 0E       		.uleb128 0xe
 3363 0108 3A       		.uleb128 0x3a
 3364 0109 0B       		.uleb128 0xb
 3365 010a 3B       		.uleb128 0x3b
 3366 010b 05       		.uleb128 0x5
 3367 010c 27       		.uleb128 0x27
 3368 010d 19       		.uleb128 0x19
 3369 010e 11       		.uleb128 0x11
 3370 010f 01       		.uleb128 0x1
 3371 0110 12       		.uleb128 0x12
 3372 0111 06       		.uleb128 0x6
 3373 0112 40       		.uleb128 0x40
 3374 0113 18       		.uleb128 0x18
 3375 0114 9742     		.uleb128 0x2117
 3376 0116 19       		.uleb128 0x19
 3377 0117 01       		.uleb128 0x1
 3378 0118 13       		.uleb128 0x13
 3379 0119 00       		.byte	0
 3380 011a 00       		.byte	0
 3381 011b 14       		.uleb128 0x14
 3382 011c 2E       		.uleb128 0x2e
 3383 011d 01       		.byte	0x1
 3384 011e 3F       		.uleb128 0x3f
 3385 011f 19       		.uleb128 0x19
 3386 0120 03       		.uleb128 0x3
 3387 0121 0E       		.uleb128 0xe
 3388 0122 3A       		.uleb128 0x3a
 3389 0123 0B       		.uleb128 0xb
 3390 0124 3B       		.uleb128 0x3b
 3391 0125 05       		.uleb128 0x5
 3392 0126 27       		.uleb128 0x27
 3393 0127 19       		.uleb128 0x19
 3394 0128 49       		.uleb128 0x49
 3395 0129 13       		.uleb128 0x13
 3396 012a 11       		.uleb128 0x11
 3397 012b 01       		.uleb128 0x1
 3398 012c 12       		.uleb128 0x12
 3399 012d 06       		.uleb128 0x6
 3400 012e 40       		.uleb128 0x40
 3401 012f 18       		.uleb128 0x18
 3402 0130 9642     		.uleb128 0x2116
ARM GAS  C:\Users\karth\AppData\Local\Temp\ccX3KBuT.s 			page 97


 3403 0132 19       		.uleb128 0x19
 3404 0133 01       		.uleb128 0x1
 3405 0134 13       		.uleb128 0x13
 3406 0135 00       		.byte	0
 3407 0136 00       		.byte	0
 3408 0137 15       		.uleb128 0x15
 3409 0138 2E       		.uleb128 0x2e
 3410 0139 01       		.byte	0x1
 3411 013a 3F       		.uleb128 0x3f
 3412 013b 19       		.uleb128 0x19
 3413 013c 03       		.uleb128 0x3
 3414 013d 0E       		.uleb128 0xe
 3415 013e 3A       		.uleb128 0x3a
 3416 013f 0B       		.uleb128 0xb
 3417 0140 3B       		.uleb128 0x3b
 3418 0141 05       		.uleb128 0x5
 3419 0142 27       		.uleb128 0x27
 3420 0143 19       		.uleb128 0x19
 3421 0144 49       		.uleb128 0x49
 3422 0145 13       		.uleb128 0x13
 3423 0146 11       		.uleb128 0x11
 3424 0147 01       		.uleb128 0x1
 3425 0148 12       		.uleb128 0x12
 3426 0149 06       		.uleb128 0x6
 3427 014a 40       		.uleb128 0x40
 3428 014b 18       		.uleb128 0x18
 3429 014c 9742     		.uleb128 0x2117
 3430 014e 19       		.uleb128 0x19
 3431 014f 01       		.uleb128 0x1
 3432 0150 13       		.uleb128 0x13
 3433 0151 00       		.byte	0
 3434 0152 00       		.byte	0
 3435 0153 16       		.uleb128 0x16
 3436 0154 2E       		.uleb128 0x2e
 3437 0155 00       		.byte	0
 3438 0156 3F       		.uleb128 0x3f
 3439 0157 19       		.uleb128 0x19
 3440 0158 03       		.uleb128 0x3
 3441 0159 0E       		.uleb128 0xe
 3442 015a 3A       		.uleb128 0x3a
 3443 015b 0B       		.uleb128 0xb
 3444 015c 3B       		.uleb128 0x3b
 3445 015d 05       		.uleb128 0x5
 3446 015e 27       		.uleb128 0x27
 3447 015f 19       		.uleb128 0x19
 3448 0160 11       		.uleb128 0x11
 3449 0161 01       		.uleb128 0x1
 3450 0162 12       		.uleb128 0x12
 3451 0163 06       		.uleb128 0x6
 3452 0164 40       		.uleb128 0x40
 3453 0165 18       		.uleb128 0x18
 3454 0166 9742     		.uleb128 0x2117
 3455 0168 19       		.uleb128 0x19
 3456 0169 00       		.byte	0
 3457 016a 00       		.byte	0
 3458 016b 17       		.uleb128 0x17
 3459 016c 34       		.uleb128 0x34
ARM GAS  C:\Users\karth\AppData\Local\Temp\ccX3KBuT.s 			page 98


 3460 016d 00       		.byte	0
 3461 016e 03       		.uleb128 0x3
 3462 016f 0E       		.uleb128 0xe
 3463 0170 3A       		.uleb128 0x3a
 3464 0171 0B       		.uleb128 0xb
 3465 0172 3B       		.uleb128 0x3b
 3466 0173 05       		.uleb128 0x5
 3467 0174 49       		.uleb128 0x49
 3468 0175 13       		.uleb128 0x13
 3469 0176 02       		.uleb128 0x2
 3470 0177 18       		.uleb128 0x18
 3471 0178 00       		.byte	0
 3472 0179 00       		.byte	0
 3473 017a 18       		.uleb128 0x18
 3474 017b 05       		.uleb128 0x5
 3475 017c 00       		.byte	0
 3476 017d 03       		.uleb128 0x3
 3477 017e 0E       		.uleb128 0xe
 3478 017f 3A       		.uleb128 0x3a
 3479 0180 0B       		.uleb128 0xb
 3480 0181 3B       		.uleb128 0x3b
 3481 0182 05       		.uleb128 0x5
 3482 0183 49       		.uleb128 0x49
 3483 0184 13       		.uleb128 0x13
 3484 0185 02       		.uleb128 0x2
 3485 0186 18       		.uleb128 0x18
 3486 0187 00       		.byte	0
 3487 0188 00       		.byte	0
 3488 0189 19       		.uleb128 0x19
 3489 018a 01       		.uleb128 0x1
 3490 018b 01       		.byte	0x1
 3491 018c 49       		.uleb128 0x49
 3492 018d 13       		.uleb128 0x13
 3493 018e 01       		.uleb128 0x1
 3494 018f 13       		.uleb128 0x13
 3495 0190 00       		.byte	0
 3496 0191 00       		.byte	0
 3497 0192 1A       		.uleb128 0x1a
 3498 0193 21       		.uleb128 0x21
 3499 0194 00       		.byte	0
 3500 0195 49       		.uleb128 0x49
 3501 0196 13       		.uleb128 0x13
 3502 0197 2F       		.uleb128 0x2f
 3503 0198 0B       		.uleb128 0xb
 3504 0199 00       		.byte	0
 3505 019a 00       		.byte	0
 3506 019b 1B       		.uleb128 0x1b
 3507 019c 34       		.uleb128 0x34
 3508 019d 00       		.byte	0
 3509 019e 03       		.uleb128 0x3
 3510 019f 0E       		.uleb128 0xe
 3511 01a0 3A       		.uleb128 0x3a
 3512 01a1 0B       		.uleb128 0xb
 3513 01a2 3B       		.uleb128 0x3b
 3514 01a3 0B       		.uleb128 0xb
 3515 01a4 49       		.uleb128 0x49
 3516 01a5 13       		.uleb128 0x13
ARM GAS  C:\Users\karth\AppData\Local\Temp\ccX3KBuT.s 			page 99


 3517 01a6 02       		.uleb128 0x2
 3518 01a7 18       		.uleb128 0x18
 3519 01a8 00       		.byte	0
 3520 01a9 00       		.byte	0
 3521 01aa 1C       		.uleb128 0x1c
 3522 01ab 34       		.uleb128 0x34
 3523 01ac 00       		.byte	0
 3524 01ad 03       		.uleb128 0x3
 3525 01ae 0E       		.uleb128 0xe
 3526 01af 3A       		.uleb128 0x3a
 3527 01b0 0B       		.uleb128 0xb
 3528 01b1 3B       		.uleb128 0x3b
 3529 01b2 0B       		.uleb128 0xb
 3530 01b3 49       		.uleb128 0x49
 3531 01b4 13       		.uleb128 0x13
 3532 01b5 3F       		.uleb128 0x3f
 3533 01b6 19       		.uleb128 0x19
 3534 01b7 02       		.uleb128 0x2
 3535 01b8 18       		.uleb128 0x18
 3536 01b9 00       		.byte	0
 3537 01ba 00       		.byte	0
 3538 01bb 1D       		.uleb128 0x1d
 3539 01bc 2E       		.uleb128 0x2e
 3540 01bd 00       		.byte	0
 3541 01be 3F       		.uleb128 0x3f
 3542 01bf 19       		.uleb128 0x19
 3543 01c0 3C       		.uleb128 0x3c
 3544 01c1 19       		.uleb128 0x19
 3545 01c2 6E       		.uleb128 0x6e
 3546 01c3 0E       		.uleb128 0xe
 3547 01c4 03       		.uleb128 0x3
 3548 01c5 0E       		.uleb128 0xe
 3549 01c6 3A       		.uleb128 0x3a
 3550 01c7 0B       		.uleb128 0xb
 3551 01c8 3B       		.uleb128 0x3b
 3552 01c9 0B       		.uleb128 0xb
 3553 01ca 00       		.byte	0
 3554 01cb 00       		.byte	0
 3555 01cc 00       		.byte	0
 3556              		.section	.debug_loc,"",%progbits
 3557              	.Ldebug_loc0:
 3558              	.LLST0:
 3559 0000 00000000 		.4byte	.LVL0
 3560 0004 0C000000 		.4byte	.LVL1
 3561 0008 0100     		.2byte	0x1
 3562 000a 50       		.byte	0x50
 3563 000b 0C000000 		.4byte	.LVL1
 3564 000f AE000000 		.4byte	.LVL31
 3565 0013 0400     		.2byte	0x4
 3566 0015 F3       		.byte	0xf3
 3567 0016 01       		.uleb128 0x1
 3568 0017 50       		.byte	0x50
 3569 0018 9F       		.byte	0x9f
 3570 0019 AE000000 		.4byte	.LVL31
 3571 001d B0000000 		.4byte	.LVL32
 3572 0021 0100     		.2byte	0x1
 3573 0023 50       		.byte	0x50
ARM GAS  C:\Users\karth\AppData\Local\Temp\ccX3KBuT.s 			page 100


 3574 0024 B0000000 		.4byte	.LVL32
 3575 0028 DC000000 		.4byte	.LFE21
 3576 002c 0400     		.2byte	0x4
 3577 002e F3       		.byte	0xf3
 3578 002f 01       		.uleb128 0x1
 3579 0030 50       		.byte	0x50
 3580 0031 9F       		.byte	0x9f
 3581 0032 00000000 		.4byte	0
 3582 0036 00000000 		.4byte	0
 3583              	.LLST1:
 3584 003a 00000000 		.4byte	.LVL0
 3585 003e 74000000 		.4byte	.LVL19
 3586 0042 0100     		.2byte	0x1
 3587 0044 51       		.byte	0x51
 3588 0045 74000000 		.4byte	.LVL19
 3589 0049 AE000000 		.4byte	.LVL31
 3590 004d 0400     		.2byte	0x4
 3591 004f F3       		.byte	0xf3
 3592 0050 01       		.uleb128 0x1
 3593 0051 51       		.byte	0x51
 3594 0052 9F       		.byte	0x9f
 3595 0053 AE000000 		.4byte	.LVL31
 3596 0057 B3000000 		.4byte	.LVL33-1
 3597 005b 0100     		.2byte	0x1
 3598 005d 51       		.byte	0x51
 3599 005e B3000000 		.4byte	.LVL33-1
 3600 0062 DC000000 		.4byte	.LFE21
 3601 0066 0400     		.2byte	0x4
 3602 0068 F3       		.byte	0xf3
 3603 0069 01       		.uleb128 0x1
 3604 006a 51       		.byte	0x51
 3605 006b 9F       		.byte	0x9f
 3606 006c 00000000 		.4byte	0
 3607 0070 00000000 		.4byte	0
 3608              	.LLST2:
 3609 0074 00000000 		.4byte	.LVL0
 3610 0078 7C000000 		.4byte	.LVL22
 3611 007c 0100     		.2byte	0x1
 3612 007e 52       		.byte	0x52
 3613 007f 7C000000 		.4byte	.LVL22
 3614 0083 AE000000 		.4byte	.LVL31
 3615 0087 0400     		.2byte	0x4
 3616 0089 F3       		.byte	0xf3
 3617 008a 01       		.uleb128 0x1
 3618 008b 52       		.byte	0x52
 3619 008c 9F       		.byte	0x9f
 3620 008d AE000000 		.4byte	.LVL31
 3621 0091 B3000000 		.4byte	.LVL33-1
 3622 0095 0100     		.2byte	0x1
 3623 0097 52       		.byte	0x52
 3624 0098 B3000000 		.4byte	.LVL33-1
 3625 009c DC000000 		.4byte	.LFE21
 3626 00a0 0400     		.2byte	0x4
 3627 00a2 F3       		.byte	0xf3
 3628 00a3 01       		.uleb128 0x1
 3629 00a4 52       		.byte	0x52
 3630 00a5 9F       		.byte	0x9f
ARM GAS  C:\Users\karth\AppData\Local\Temp\ccX3KBuT.s 			page 101


 3631 00a6 00000000 		.4byte	0
 3632 00aa 00000000 		.4byte	0
 3633              	.LLST3:
 3634 00ae 00000000 		.4byte	.LVL0
 3635 00b2 94000000 		.4byte	.LVL27
 3636 00b6 0100     		.2byte	0x1
 3637 00b8 53       		.byte	0x53
 3638 00b9 94000000 		.4byte	.LVL27
 3639 00bd 98000000 		.4byte	.LVL28
 3640 00c1 0400     		.2byte	0x4
 3641 00c3 F3       		.byte	0xf3
 3642 00c4 01       		.uleb128 0x1
 3643 00c5 53       		.byte	0x53
 3644 00c6 9F       		.byte	0x9f
 3645 00c7 98000000 		.4byte	.LVL28
 3646 00cb 9A000000 		.4byte	.LVL29
 3647 00cf 0100     		.2byte	0x1
 3648 00d1 53       		.byte	0x53
 3649 00d2 9A000000 		.4byte	.LVL29
 3650 00d6 AE000000 		.4byte	.LVL31
 3651 00da 0400     		.2byte	0x4
 3652 00dc F3       		.byte	0xf3
 3653 00dd 01       		.uleb128 0x1
 3654 00de 53       		.byte	0x53
 3655 00df 9F       		.byte	0x9f
 3656 00e0 AE000000 		.4byte	.LVL31
 3657 00e4 B3000000 		.4byte	.LVL33-1
 3658 00e8 0100     		.2byte	0x1
 3659 00ea 53       		.byte	0x53
 3660 00eb B3000000 		.4byte	.LVL33-1
 3661 00ef DC000000 		.4byte	.LFE21
 3662 00f3 0400     		.2byte	0x4
 3663 00f5 F3       		.byte	0xf3
 3664 00f6 01       		.uleb128 0x1
 3665 00f7 53       		.byte	0x53
 3666 00f8 9F       		.byte	0x9f
 3667 00f9 00000000 		.4byte	0
 3668 00fd 00000000 		.4byte	0
 3669              	.LLST4:
 3670 0101 00000000 		.4byte	.LVL0
 3671 0105 AE000000 		.4byte	.LVL31
 3672 0109 0200     		.2byte	0x2
 3673 010b 91       		.byte	0x91
 3674 010c 00       		.sleb128 0
 3675 010d AE000000 		.4byte	.LVL31
 3676 0111 B6000000 		.4byte	.LVL34
 3677 0115 0200     		.2byte	0x2
 3678 0117 91       		.byte	0x91
 3679 0118 00       		.sleb128 0
 3680 0119 B6000000 		.4byte	.LVL34
 3681 011d DC000000 		.4byte	.LFE21
 3682 0121 0200     		.2byte	0x2
 3683 0123 7D       		.byte	0x7d
 3684 0124 00       		.sleb128 0
 3685 0125 00000000 		.4byte	0
 3686 0129 00000000 		.4byte	0
 3687              	.LLST5:
ARM GAS  C:\Users\karth\AppData\Local\Temp\ccX3KBuT.s 			page 102


 3688 012d 28000000 		.4byte	.LVL2
 3689 0131 2A000000 		.4byte	.LVL3
 3690 0135 0100     		.2byte	0x1
 3691 0137 50       		.byte	0x50
 3692 0138 30000000 		.4byte	.LVL4
 3693 013c 32000000 		.4byte	.LVL5
 3694 0140 0100     		.2byte	0x1
 3695 0142 50       		.byte	0x50
 3696 0143 3C000000 		.4byte	.LVL6
 3697 0147 3E000000 		.4byte	.LVL7
 3698 014b 0100     		.2byte	0x1
 3699 014d 50       		.byte	0x50
 3700 014e 44000000 		.4byte	.LVL8
 3701 0152 46000000 		.4byte	.LVL9
 3702 0156 0100     		.2byte	0x1
 3703 0158 50       		.byte	0x50
 3704 0159 50000000 		.4byte	.LVL10
 3705 015d 52000000 		.4byte	.LVL11
 3706 0161 0100     		.2byte	0x1
 3707 0163 50       		.byte	0x50
 3708 0164 58000000 		.4byte	.LVL12
 3709 0168 5A000000 		.4byte	.LVL13
 3710 016c 0100     		.2byte	0x1
 3711 016e 50       		.byte	0x50
 3712 016f 64000000 		.4byte	.LVL14
 3713 0173 66000000 		.4byte	.LVL15
 3714 0177 0100     		.2byte	0x1
 3715 0179 50       		.byte	0x50
 3716 017a 6C000000 		.4byte	.LVL16
 3717 017e 6E000000 		.4byte	.LVL17
 3718 0182 0100     		.2byte	0x1
 3719 0184 50       		.byte	0x50
 3720 0185 70000000 		.4byte	.LVL18
 3721 0189 8E000000 		.4byte	.LVL26
 3722 018d 0100     		.2byte	0x1
 3723 018f 50       		.byte	0x50
 3724 0190 98000000 		.4byte	.LVL28
 3725 0194 A4000000 		.4byte	.LVL30
 3726 0198 0100     		.2byte	0x1
 3727 019a 50       		.byte	0x50
 3728 019b 00000000 		.4byte	0
 3729 019f 00000000 		.4byte	0
 3730              	.LLST6:
 3731 01a3 74000000 		.4byte	.LVL19
 3732 01a7 78000000 		.4byte	.LVL20
 3733 01ab 0100     		.2byte	0x1
 3734 01ad 51       		.byte	0x51
 3735 01ae 00000000 		.4byte	0
 3736 01b2 00000000 		.4byte	0
 3737              	.LLST7:
 3738 01b6 7C000000 		.4byte	.LVL22
 3739 01ba 84000000 		.4byte	.LVL23
 3740 01be 0100     		.2byte	0x1
 3741 01c0 52       		.byte	0x52
 3742 01c1 84000000 		.4byte	.LVL23
 3743 01c5 88000000 		.4byte	.LVL24
 3744 01c9 0100     		.2byte	0x1
ARM GAS  C:\Users\karth\AppData\Local\Temp\ccX3KBuT.s 			page 103


 3745 01cb 51       		.byte	0x51
 3746 01cc 8A000000 		.4byte	.LVL25
 3747 01d0 AE000000 		.4byte	.LVL31
 3748 01d4 0100     		.2byte	0x1
 3749 01d6 52       		.byte	0x52
 3750 01d7 00000000 		.4byte	0
 3751 01db 00000000 		.4byte	0
 3752              	.LLST8:
 3753 01df 78000000 		.4byte	.LVL20
 3754 01e3 7A000000 		.4byte	.LVL21
 3755 01e7 0100     		.2byte	0x1
 3756 01e9 51       		.byte	0x51
 3757 01ea 00000000 		.4byte	0
 3758 01ee 00000000 		.4byte	0
 3759              	.LLST9:
 3760 01f2 00000000 		.4byte	.LVL35
 3761 01f6 07000000 		.4byte	.LVL36-1
 3762 01fa 0100     		.2byte	0x1
 3763 01fc 50       		.byte	0x50
 3764 01fd 07000000 		.4byte	.LVL36-1
 3765 0201 4C000000 		.4byte	.LFE22
 3766 0205 0400     		.2byte	0x4
 3767 0207 F3       		.byte	0xf3
 3768 0208 01       		.uleb128 0x1
 3769 0209 50       		.byte	0x50
 3770 020a 9F       		.byte	0x9f
 3771 020b 00000000 		.4byte	0
 3772 020f 00000000 		.4byte	0
 3773              	.LLST10:
 3774 0213 0A000000 		.4byte	.LVL37
 3775 0217 40000000 		.4byte	.LVL40
 3776 021b 0100     		.2byte	0x1
 3777 021d 56       		.byte	0x56
 3778 021e 00000000 		.4byte	0
 3779 0222 00000000 		.4byte	0
 3780              	.LLST11:
 3781 0226 00000000 		.4byte	.LVL41
 3782 022a 5A000000 		.4byte	.LVL42
 3783 022e 0100     		.2byte	0x1
 3784 0230 50       		.byte	0x50
 3785 0231 5A000000 		.4byte	.LVL42
 3786 0235 E8000000 		.4byte	.LFE19
 3787 0239 0400     		.2byte	0x4
 3788 023b F3       		.byte	0xf3
 3789 023c 01       		.uleb128 0x1
 3790 023d 50       		.byte	0x50
 3791 023e 9F       		.byte	0x9f
 3792 023f 00000000 		.4byte	0
 3793 0243 00000000 		.4byte	0
 3794              	.LLST12:
 3795 0247 08000000 		.4byte	.LVL53
 3796 024b B2000000 		.4byte	.LVL57
 3797 024f 0100     		.2byte	0x1
 3798 0251 56       		.byte	0x56
 3799 0252 00000000 		.4byte	0
 3800 0256 00000000 		.4byte	0
 3801              	.LLST13:
ARM GAS  C:\Users\karth\AppData\Local\Temp\ccX3KBuT.s 			page 104


 3802 025a 08000000 		.4byte	.LVL61
 3803 025e CE000000 		.4byte	.LVL64
 3804 0262 0100     		.2byte	0x1
 3805 0264 56       		.byte	0x56
 3806 0265 00000000 		.4byte	0
 3807 0269 00000000 		.4byte	0
 3808              	.LLST14:
 3809 026d 00000000 		.4byte	.LVL65
 3810 0271 0A000000 		.4byte	.LVL67
 3811 0275 0100     		.2byte	0x1
 3812 0277 50       		.byte	0x50
 3813 0278 0A000000 		.4byte	.LVL67
 3814 027c 18000000 		.4byte	.LFE4
 3815 0280 0400     		.2byte	0x4
 3816 0282 F3       		.byte	0xf3
 3817 0283 01       		.uleb128 0x1
 3818 0284 50       		.byte	0x50
 3819 0285 9F       		.byte	0x9f
 3820 0286 00000000 		.4byte	0
 3821 028a 00000000 		.4byte	0
 3822              	.LLST15:
 3823 028e 08000000 		.4byte	.LVL66
 3824 0292 10000000 		.4byte	.LVL68
 3825 0296 0100     		.2byte	0x1
 3826 0298 53       		.byte	0x53
 3827 0299 10000000 		.4byte	.LVL68
 3828 029d 18000000 		.4byte	.LFE4
 3829 02a1 0100     		.2byte	0x1
 3830 02a3 50       		.byte	0x50
 3831 02a4 00000000 		.4byte	0
 3832 02a8 00000000 		.4byte	0
 3833              	.LLST16:
 3834 02ac 00000000 		.4byte	.LVL69
 3835 02b0 0C000000 		.4byte	.LVL71
 3836 02b4 0100     		.2byte	0x1
 3837 02b6 50       		.byte	0x50
 3838 02b7 0C000000 		.4byte	.LVL71
 3839 02bb 18000000 		.4byte	.LFE5
 3840 02bf 0400     		.2byte	0x4
 3841 02c1 F3       		.byte	0xf3
 3842 02c2 01       		.uleb128 0x1
 3843 02c3 50       		.byte	0x50
 3844 02c4 9F       		.byte	0x9f
 3845 02c5 00000000 		.4byte	0
 3846 02c9 00000000 		.4byte	0
 3847              	.LLST17:
 3848 02cd 08000000 		.4byte	.LVL70
 3849 02d1 0E000000 		.4byte	.LVL72
 3850 02d5 0100     		.2byte	0x1
 3851 02d7 53       		.byte	0x53
 3852 02d8 0E000000 		.4byte	.LVL72
 3853 02dc 18000000 		.4byte	.LFE5
 3854 02e0 0100     		.2byte	0x1
 3855 02e2 50       		.byte	0x50
 3856 02e3 00000000 		.4byte	0
 3857 02e7 00000000 		.4byte	0
 3858              	.LLST18:
ARM GAS  C:\Users\karth\AppData\Local\Temp\ccX3KBuT.s 			page 105


 3859 02eb 00000000 		.4byte	.LVL73
 3860 02ef 10000000 		.4byte	.LVL75
 3861 02f3 0100     		.2byte	0x1
 3862 02f5 50       		.byte	0x50
 3863 02f6 10000000 		.4byte	.LVL75
 3864 02fa 24000000 		.4byte	.LVL79
 3865 02fe 0100     		.2byte	0x1
 3866 0300 54       		.byte	0x54
 3867 0301 24000000 		.4byte	.LVL79
 3868 0305 74000000 		.4byte	.LFE6
 3869 0309 0600     		.2byte	0x6
 3870 030b F3       		.byte	0xf3
 3871 030c 03       		.uleb128 0x3
 3872 030d F5       		.byte	0xf5
 3873 030e 00       		.uleb128 0
 3874 030f 25       		.uleb128 0x25
 3875 0310 9F       		.byte	0x9f
 3876 0311 00000000 		.4byte	0
 3877 0315 00000000 		.4byte	0
 3878              	.LLST19:
 3879 0319 0A000000 		.4byte	.LVL74
 3880 031d 13000000 		.4byte	.LVL76-1
 3881 0321 0A00     		.2byte	0xa
 3882 0323 73       		.byte	0x73
 3883 0324 00       		.sleb128 0
 3884 0325 32       		.byte	0x32
 3885 0326 24       		.byte	0x24
 3886 0327 03       		.byte	0x3
 3887 0328 00000000 		.4byte	.LANCHOR0
 3888 032c 22       		.byte	0x22
 3889 032d 44000000 		.4byte	.LVL84
 3890 0331 56000000 		.4byte	.LVL86
 3891 0335 0100     		.2byte	0x1
 3892 0337 50       		.byte	0x50
 3893 0338 56000000 		.4byte	.LVL86
 3894 033c 58000000 		.4byte	.LVL87
 3895 0340 0700     		.2byte	0x7
 3896 0342 73       		.byte	0x73
 3897 0343 00       		.sleb128 0
 3898 0344 32       		.byte	0x32
 3899 0345 24       		.byte	0x24
 3900 0346 72       		.byte	0x72
 3901 0347 00       		.sleb128 0
 3902 0348 22       		.byte	0x22
 3903 0349 00000000 		.4byte	0
 3904 034d 00000000 		.4byte	0
 3905              	.LLST20:
 3906 0351 54000000 		.4byte	.LVL85
 3907 0355 58000000 		.4byte	.LVL87
 3908 0359 0200     		.2byte	0x2
 3909 035b 30       		.byte	0x30
 3910 035c 9F       		.byte	0x9f
 3911 035d 5A000000 		.4byte	.LVL88
 3912 0361 74000000 		.4byte	.LFE6
 3913 0365 0100     		.2byte	0x1
 3914 0367 50       		.byte	0x50
 3915 0368 00000000 		.4byte	0
ARM GAS  C:\Users\karth\AppData\Local\Temp\ccX3KBuT.s 			page 106


 3916 036c 00000000 		.4byte	0
 3917              	.LLST21:
 3918 0370 1C000000 		.4byte	.LVL77
 3919 0374 21000000 		.4byte	.LVL78-1
 3920 0378 0100     		.2byte	0x1
 3921 037a 50       		.byte	0x50
 3922 037b 24000000 		.4byte	.LVL79
 3923 037f 27000000 		.4byte	.LVL80-1
 3924 0383 0100     		.2byte	0x1
 3925 0385 50       		.byte	0x50
 3926 0386 27000000 		.4byte	.LVL80-1
 3927 038a 3E000000 		.4byte	.LVL82
 3928 038e 0100     		.2byte	0x1
 3929 0390 54       		.byte	0x54
 3930 0391 3E000000 		.4byte	.LVL82
 3931 0395 41000000 		.4byte	.LVL83-1
 3932 0399 0100     		.2byte	0x1
 3933 039b 50       		.byte	0x50
 3934 039c 58000000 		.4byte	.LVL87
 3935 03a0 5C000000 		.4byte	.LVL89
 3936 03a4 0100     		.2byte	0x1
 3937 03a6 54       		.byte	0x54
 3938 03a7 00000000 		.4byte	0
 3939 03ab 00000000 		.4byte	0
 3940              	.LLST22:
 3941 03af 06000000 		.4byte	.LVL90
 3942 03b3 14000000 		.4byte	.LVL92
 3943 03b7 0100     		.2byte	0x1
 3944 03b9 53       		.byte	0x53
 3945 03ba 00000000 		.4byte	0
 3946 03be 00000000 		.4byte	0
 3947              	.LLST23:
 3948 03c2 0C000000 		.4byte	.LVL91
 3949 03c6 16000000 		.4byte	.LVL93
 3950 03ca 0100     		.2byte	0x1
 3951 03cc 50       		.byte	0x50
 3952 03cd 18000000 		.4byte	.LVL94
 3953 03d1 24000000 		.4byte	.LFE7
 3954 03d5 0100     		.2byte	0x1
 3955 03d7 50       		.byte	0x50
 3956 03d8 00000000 		.4byte	0
 3957 03dc 00000000 		.4byte	0
 3958              	.LLST24:
 3959 03e0 00000000 		.4byte	.LVL95
 3960 03e4 24000000 		.4byte	.LVL99
 3961 03e8 0100     		.2byte	0x1
 3962 03ea 50       		.byte	0x50
 3963 03eb 24000000 		.4byte	.LVL99
 3964 03ef 30000000 		.4byte	.LFE10
 3965 03f3 0400     		.2byte	0x4
 3966 03f5 F3       		.byte	0xf3
 3967 03f6 01       		.uleb128 0x1
 3968 03f7 50       		.byte	0x50
 3969 03f8 9F       		.byte	0x9f
 3970 03f9 00000000 		.4byte	0
 3971 03fd 00000000 		.4byte	0
 3972              	.LLST25:
ARM GAS  C:\Users\karth\AppData\Local\Temp\ccX3KBuT.s 			page 107


 3973 0401 10000000 		.4byte	.LVL96
 3974 0405 12000000 		.4byte	.LVL97
 3975 0409 0100     		.2byte	0x1
 3976 040b 53       		.byte	0x53
 3977 040c 1A000000 		.4byte	.LVL98
 3978 0410 30000000 		.4byte	.LFE10
 3979 0414 0100     		.2byte	0x1
 3980 0416 53       		.byte	0x53
 3981 0417 00000000 		.4byte	0
 3982 041b 00000000 		.4byte	0
 3983              	.LLST26:
 3984 041f 08000000 		.4byte	.LVL100
 3985 0423 14000000 		.4byte	.LVL102
 3986 0427 0100     		.2byte	0x1
 3987 0429 53       		.byte	0x53
 3988 042a 18000000 		.4byte	.LVL103
 3989 042e 1E000000 		.4byte	.LVL104
 3990 0432 0100     		.2byte	0x1
 3991 0434 53       		.byte	0x53
 3992 0435 00000000 		.4byte	0
 3993 0439 00000000 		.4byte	0
 3994              	.LLST27:
 3995 043d 12000000 		.4byte	.LVL107
 3996 0441 14000000 		.4byte	.LVL108
 3997 0445 0100     		.2byte	0x1
 3998 0447 50       		.byte	0x50
 3999 0448 18000000 		.4byte	.LVL109
 4000 044c 20000000 		.4byte	.LVL110
 4001 0450 0100     		.2byte	0x1
 4002 0452 52       		.byte	0x52
 4003 0453 20000000 		.4byte	.LVL110
 4004 0457 50000000 		.4byte	.LFE12
 4005 045b 0100     		.2byte	0x1
 4006 045d 50       		.byte	0x50
 4007 045e 00000000 		.4byte	0
 4008 0462 00000000 		.4byte	0
 4009              	.LLST28:
 4010 0466 08000000 		.4byte	.LVL105
 4011 046a 0E000000 		.4byte	.LVL106
 4012 046e 0100     		.2byte	0x1
 4013 0470 53       		.byte	0x53
 4014 0471 14000000 		.4byte	.LVL108
 4015 0475 26000000 		.4byte	.LVL111
 4016 0479 0100     		.2byte	0x1
 4017 047b 53       		.byte	0x53
 4018 047c 00000000 		.4byte	0
 4019 0480 00000000 		.4byte	0
 4020              	.LLST29:
 4021 0484 10000000 		.4byte	.LVL114
 4022 0488 1A000000 		.4byte	.LVL115
 4023 048c 0700     		.2byte	0x7
 4024 048e 70       		.byte	0x70
 4025 048f 00       		.sleb128 0
 4026 0490 0A       		.byte	0xa
 4027 0491 FFFF     		.2byte	0xffff
 4028 0493 1A       		.byte	0x1a
 4029 0494 9F       		.byte	0x9f
ARM GAS  C:\Users\karth\AppData\Local\Temp\ccX3KBuT.s 			page 108


 4030 0495 1A000000 		.4byte	.LVL115
 4031 0499 1C000000 		.4byte	.LVL116
 4032 049d 0100     		.2byte	0x1
 4033 049f 50       		.byte	0x50
 4034 04a0 24000000 		.4byte	.LVL118
 4035 04a4 2C000000 		.4byte	.LVL119
 4036 04a8 0700     		.2byte	0x7
 4037 04aa 70       		.byte	0x70
 4038 04ab 00       		.sleb128 0
 4039 04ac 0A       		.byte	0xa
 4040 04ad FFFF     		.2byte	0xffff
 4041 04af 1A       		.byte	0x1a
 4042 04b0 9F       		.byte	0x9f
 4043 04b1 2C000000 		.4byte	.LVL119
 4044 04b5 34000000 		.4byte	.LVL120
 4045 04b9 0100     		.2byte	0x1
 4046 04bb 53       		.byte	0x53
 4047 04bc 34000000 		.4byte	.LVL120
 4048 04c0 36000000 		.4byte	.LVL121
 4049 04c4 0100     		.2byte	0x1
 4050 04c6 50       		.byte	0x50
 4051 04c7 3C000000 		.4byte	.LVL123
 4052 04cb 44000000 		.4byte	.LVL124
 4053 04cf 0100     		.2byte	0x1
 4054 04d1 53       		.byte	0x53
 4055 04d2 44000000 		.4byte	.LVL124
 4056 04d6 6C000000 		.4byte	.LFE13
 4057 04da 0100     		.2byte	0x1
 4058 04dc 50       		.byte	0x50
 4059 04dd 00000000 		.4byte	0
 4060 04e1 00000000 		.4byte	0
 4061              	.LLST30:
 4062 04e5 08000000 		.4byte	.LVL112
 4063 04e9 0E000000 		.4byte	.LVL113
 4064 04ed 0100     		.2byte	0x1
 4065 04ef 53       		.byte	0x53
 4066 04f0 1C000000 		.4byte	.LVL116
 4067 04f4 22000000 		.4byte	.LVL117
 4068 04f8 0100     		.2byte	0x1
 4069 04fa 53       		.byte	0x53
 4070 04fb 36000000 		.4byte	.LVL121
 4071 04ff 38000000 		.4byte	.LVL122
 4072 0503 0100     		.2byte	0x1
 4073 0505 53       		.byte	0x53
 4074 0506 00000000 		.4byte	0
 4075 050a 00000000 		.4byte	0
 4076              	.LLST31:
 4077 050e 00000000 		.4byte	.LVL127
 4078 0512 14000000 		.4byte	.LVL128
 4079 0516 0100     		.2byte	0x1
 4080 0518 50       		.byte	0x50
 4081 0519 14000000 		.4byte	.LVL128
 4082 051d 22000000 		.4byte	.LVL130
 4083 0521 0100     		.2byte	0x1
 4084 0523 50       		.byte	0x50
 4085 0524 00000000 		.4byte	0
 4086 0528 00000000 		.4byte	0
ARM GAS  C:\Users\karth\AppData\Local\Temp\ccX3KBuT.s 			page 109


 4087              	.LLST32:
 4088 052c 00000000 		.4byte	.LVL132
 4089 0530 16000000 		.4byte	.LVL133
 4090 0534 0100     		.2byte	0x1
 4091 0536 50       		.byte	0x50
 4092 0537 16000000 		.4byte	.LVL133
 4093 053b 1A000000 		.4byte	.LVL134
 4094 053f 0100     		.2byte	0x1
 4095 0541 50       		.byte	0x50
 4096 0542 1A000000 		.4byte	.LVL134
 4097 0546 1C000000 		.4byte	.LVL135
 4098 054a 0600     		.2byte	0x6
 4099 054c 70       		.byte	0x70
 4100 054d 00       		.sleb128 0
 4101 054e 73       		.byte	0x73
 4102 054f 00       		.sleb128 0
 4103 0550 1C       		.byte	0x1c
 4104 0551 9F       		.byte	0x9f
 4105 0552 1C000000 		.4byte	.LVL135
 4106 0556 1F000000 		.4byte	.LVL136-1
 4107 055a 0100     		.2byte	0x1
 4108 055c 50       		.byte	0x50
 4109 055d 00000000 		.4byte	0
 4110 0561 00000000 		.4byte	0
 4111              	.LLST33:
 4112 0565 00000000 		.4byte	.LVL139
 4113 0569 16000000 		.4byte	.LVL141
 4114 056d 0100     		.2byte	0x1
 4115 056f 50       		.byte	0x50
 4116 0570 16000000 		.4byte	.LVL141
 4117 0574 5A000000 		.4byte	.LVL149
 4118 0578 0100     		.2byte	0x1
 4119 057a 50       		.byte	0x50
 4120 057b 00000000 		.4byte	0
 4121 057f 00000000 		.4byte	0
 4122              	.LLST34:
 4123 0583 6A000000 		.4byte	.LVL150
 4124 0587 6C000000 		.4byte	.LVL151
 4125 058b 0600     		.2byte	0x6
 4126 058d 73       		.byte	0x73
 4127 058e 00       		.sleb128 0
 4128 058f 70       		.byte	0x70
 4129 0590 00       		.sleb128 0
 4130 0591 1C       		.byte	0x1c
 4131 0592 9F       		.byte	0x9f
 4132 0593 6C000000 		.4byte	.LVL151
 4133 0597 80000000 		.4byte	.LFE18
 4134 059b 0100     		.2byte	0x1
 4135 059d 50       		.byte	0x50
 4136 059e 00000000 		.4byte	0
 4137 05a2 00000000 		.4byte	0
 4138              	.LLST35:
 4139 05a6 40000000 		.4byte	.LVL144
 4140 05aa 46000000 		.4byte	.LVL145
 4141 05ae 0600     		.2byte	0x6
 4142 05b0 0C       		.byte	0xc
 4143 05b1 40420F00 		.4byte	0xf4240
ARM GAS  C:\Users\karth\AppData\Local\Temp\ccX3KBuT.s 			page 110


 4144 05b5 9F       		.byte	0x9f
 4145 05b6 4E000000 		.4byte	.LVL146
 4146 05ba 6E000000 		.4byte	.LVL152
 4147 05be 0100     		.2byte	0x1
 4148 05c0 54       		.byte	0x54
 4149 05c1 00000000 		.4byte	0
 4150 05c5 00000000 		.4byte	0
 4151              	.LLST36:
 4152 05c9 40000000 		.4byte	.LVL144
 4153 05cd 46000000 		.4byte	.LVL145
 4154 05d1 0200     		.2byte	0x2
 4155 05d3 31       		.byte	0x31
 4156 05d4 9F       		.byte	0x9f
 4157 05d5 4E000000 		.4byte	.LVL146
 4158 05d9 80000000 		.4byte	.LFE18
 4159 05dd 0100     		.2byte	0x1
 4160 05df 51       		.byte	0x51
 4161 05e0 00000000 		.4byte	0
 4162 05e4 00000000 		.4byte	0
 4163              	.LLST37:
 4164 05e8 0C000000 		.4byte	.LVL140
 4165 05ec 1A000000 		.4byte	.LVL142
 4166 05f0 0200     		.2byte	0x2
 4167 05f2 44       		.byte	0x44
 4168 05f3 9F       		.byte	0x9f
 4169 05f4 2E000000 		.4byte	.LVL143
 4170 05f8 50000000 		.4byte	.LVL147
 4171 05fc 0100     		.2byte	0x1
 4172 05fe 53       		.byte	0x53
 4173 05ff 00000000 		.4byte	0
 4174 0603 00000000 		.4byte	0
 4175              	.LLST38:
 4176 0607 00000000 		.4byte	.LVL153
 4177 060b 1D000000 		.4byte	.LVL154-1
 4178 060f 0100     		.2byte	0x1
 4179 0611 50       		.byte	0x50
 4180 0612 1D000000 		.4byte	.LVL154-1
 4181 0616 48000000 		.4byte	.LVL158
 4182 061a 0400     		.2byte	0x4
 4183 061c F3       		.byte	0xf3
 4184 061d 01       		.uleb128 0x1
 4185 061e 50       		.byte	0x50
 4186 061f 9F       		.byte	0x9f
 4187 0620 48000000 		.4byte	.LVL158
 4188 0624 4A000000 		.4byte	.LVL159
 4189 0628 0100     		.2byte	0x1
 4190 062a 50       		.byte	0x50
 4191 062b 4A000000 		.4byte	.LVL159
 4192 062f 60000000 		.4byte	.LFE20
 4193 0633 0400     		.2byte	0x4
 4194 0635 F3       		.byte	0xf3
 4195 0636 01       		.uleb128 0x1
 4196 0637 50       		.byte	0x50
 4197 0638 9F       		.byte	0x9f
 4198 0639 00000000 		.4byte	0
 4199 063d 00000000 		.4byte	0
 4200              	.LLST39:
ARM GAS  C:\Users\karth\AppData\Local\Temp\ccX3KBuT.s 			page 111


 4201 0641 00000000 		.4byte	.LVL153
 4202 0645 1D000000 		.4byte	.LVL154-1
 4203 0649 0100     		.2byte	0x1
 4204 064b 51       		.byte	0x51
 4205 064c 1D000000 		.4byte	.LVL154-1
 4206 0650 48000000 		.4byte	.LVL158
 4207 0654 0400     		.2byte	0x4
 4208 0656 F3       		.byte	0xf3
 4209 0657 01       		.uleb128 0x1
 4210 0658 51       		.byte	0x51
 4211 0659 9F       		.byte	0x9f
 4212 065a 48000000 		.4byte	.LVL158
 4213 065e 4D000000 		.4byte	.LVL160-1
 4214 0662 0100     		.2byte	0x1
 4215 0664 51       		.byte	0x51
 4216 0665 4D000000 		.4byte	.LVL160-1
 4217 0669 60000000 		.4byte	.LFE20
 4218 066d 0400     		.2byte	0x4
 4219 066f F3       		.byte	0xf3
 4220 0670 01       		.uleb128 0x1
 4221 0671 51       		.byte	0x51
 4222 0672 9F       		.byte	0x9f
 4223 0673 00000000 		.4byte	0
 4224 0677 00000000 		.4byte	0
 4225              	.LLST40:
 4226 067b 1C000000 		.4byte	.LVL164
 4227 067f 24000000 		.4byte	.LVL166
 4228 0683 0100     		.2byte	0x1
 4229 0685 54       		.byte	0x54
 4230 0686 00000000 		.4byte	0
 4231 068a 00000000 		.4byte	0
 4232              	.LLST41:
 4233 068e 1C000000 		.4byte	.LVL170
 4234 0692 24000000 		.4byte	.LVL172
 4235 0696 0100     		.2byte	0x1
 4236 0698 54       		.byte	0x54
 4237 0699 00000000 		.4byte	0
 4238 069d 00000000 		.4byte	0
 4239              	.LLST42:
 4240 06a1 1C000000 		.4byte	.LVL176
 4241 06a5 1F000000 		.4byte	.LVL177-1
 4242 06a9 0100     		.2byte	0x1
 4243 06ab 50       		.byte	0x50
 4244 06ac 1F000000 		.4byte	.LVL177-1
 4245 06b0 24000000 		.4byte	.LVL178
 4246 06b4 0100     		.2byte	0x1
 4247 06b6 54       		.byte	0x54
 4248 06b7 24000000 		.4byte	.LVL178
 4249 06bb 28000000 		.4byte	.LFE25
 4250 06bf 0100     		.2byte	0x1
 4251 06c1 50       		.byte	0x50
 4252 06c2 00000000 		.4byte	0
 4253 06c6 00000000 		.4byte	0
 4254              		.section	.debug_aranges,"",%progbits
 4255 0000 E4000000 		.4byte	0xe4
 4256 0004 0200     		.2byte	0x2
 4257 0006 00000000 		.4byte	.Ldebug_info0
ARM GAS  C:\Users\karth\AppData\Local\Temp\ccX3KBuT.s 			page 112


 4258 000a 04       		.byte	0x4
 4259 000b 00       		.byte	0
 4260 000c 0000     		.2byte	0
 4261 000e 0000     		.2byte	0
 4262 0010 00000000 		.4byte	.LFB21
 4263 0014 DC000000 		.4byte	.LFE21-.LFB21
 4264 0018 00000000 		.4byte	.LFB22
 4265 001c 4C000000 		.4byte	.LFE22-.LFB22
 4266 0020 00000000 		.4byte	.LFB19
 4267 0024 E8000000 		.4byte	.LFE19-.LFB19
 4268 0028 00000000 		.4byte	.LFB0
 4269 002c D0000000 		.4byte	.LFE0-.LFB0
 4270 0030 00000000 		.4byte	.LFB1
 4271 0034 D8000000 		.4byte	.LFE1-.LFB1
 4272 0038 00000000 		.4byte	.LFB2
 4273 003c 28000000 		.4byte	.LFE2-.LFB2
 4274 0040 00000000 		.4byte	.LFB3
 4275 0044 E4000000 		.4byte	.LFE3-.LFB3
 4276 0048 00000000 		.4byte	.LFB4
 4277 004c 18000000 		.4byte	.LFE4-.LFB4
 4278 0050 00000000 		.4byte	.LFB5
 4279 0054 18000000 		.4byte	.LFE5-.LFB5
 4280 0058 00000000 		.4byte	.LFB6
 4281 005c 74000000 		.4byte	.LFE6-.LFB6
 4282 0060 00000000 		.4byte	.LFB7
 4283 0064 24000000 		.4byte	.LFE7-.LFB7
 4284 0068 00000000 		.4byte	.LFB8
 4285 006c 10000000 		.4byte	.LFE8-.LFB8
 4286 0070 00000000 		.4byte	.LFB9
 4287 0074 10000000 		.4byte	.LFE9-.LFB9
 4288 0078 00000000 		.4byte	.LFB10
 4289 007c 30000000 		.4byte	.LFE10-.LFB10
 4290 0080 00000000 		.4byte	.LFB11
 4291 0084 48000000 		.4byte	.LFE11-.LFB11
 4292 0088 00000000 		.4byte	.LFB12
 4293 008c 50000000 		.4byte	.LFE12-.LFB12
 4294 0090 00000000 		.4byte	.LFB13
 4295 0094 6C000000 		.4byte	.LFE13-.LFB13
 4296 0098 00000000 		.4byte	.LFB14
 4297 009c 0C000000 		.4byte	.LFE14-.LFB14
 4298 00a0 00000000 		.4byte	.LFB15
 4299 00a4 0C000000 		.4byte	.LFE15-.LFB15
 4300 00a8 00000000 		.4byte	.LFB16
 4301 00ac 3C000000 		.4byte	.LFE16-.LFB16
 4302 00b0 00000000 		.4byte	.LFB17
 4303 00b4 40000000 		.4byte	.LFE17-.LFB17
 4304 00b8 00000000 		.4byte	.LFB18
 4305 00bc 80000000 		.4byte	.LFE18-.LFB18
 4306 00c0 00000000 		.4byte	.LFB20
 4307 00c4 60000000 		.4byte	.LFE20-.LFB20
 4308 00c8 00000000 		.4byte	.LFB23
 4309 00cc 28000000 		.4byte	.LFE23-.LFB23
 4310 00d0 00000000 		.4byte	.LFB24
 4311 00d4 28000000 		.4byte	.LFE24-.LFB24
 4312 00d8 00000000 		.4byte	.LFB25
 4313 00dc 28000000 		.4byte	.LFE25-.LFB25
 4314 00e0 00000000 		.4byte	0
ARM GAS  C:\Users\karth\AppData\Local\Temp\ccX3KBuT.s 			page 113


 4315 00e4 00000000 		.4byte	0
 4316              		.section	.debug_ranges,"",%progbits
 4317              	.Ldebug_ranges0:
 4318 0000 00000000 		.4byte	.LFB21
 4319 0004 DC000000 		.4byte	.LFE21
 4320 0008 00000000 		.4byte	.LFB22
 4321 000c 4C000000 		.4byte	.LFE22
 4322 0010 00000000 		.4byte	.LFB19
 4323 0014 E8000000 		.4byte	.LFE19
 4324 0018 00000000 		.4byte	.LFB0
 4325 001c D0000000 		.4byte	.LFE0
 4326 0020 00000000 		.4byte	.LFB1
 4327 0024 D8000000 		.4byte	.LFE1
 4328 0028 00000000 		.4byte	.LFB2
 4329 002c 28000000 		.4byte	.LFE2
 4330 0030 00000000 		.4byte	.LFB3
 4331 0034 E4000000 		.4byte	.LFE3
 4332 0038 00000000 		.4byte	.LFB4
 4333 003c 18000000 		.4byte	.LFE4
 4334 0040 00000000 		.4byte	.LFB5
 4335 0044 18000000 		.4byte	.LFE5
 4336 0048 00000000 		.4byte	.LFB6
 4337 004c 74000000 		.4byte	.LFE6
 4338 0050 00000000 		.4byte	.LFB7
 4339 0054 24000000 		.4byte	.LFE7
 4340 0058 00000000 		.4byte	.LFB8
 4341 005c 10000000 		.4byte	.LFE8
 4342 0060 00000000 		.4byte	.LFB9
 4343 0064 10000000 		.4byte	.LFE9
 4344 0068 00000000 		.4byte	.LFB10
 4345 006c 30000000 		.4byte	.LFE10
 4346 0070 00000000 		.4byte	.LFB11
 4347 0074 48000000 		.4byte	.LFE11
 4348 0078 00000000 		.4byte	.LFB12
 4349 007c 50000000 		.4byte	.LFE12
 4350 0080 00000000 		.4byte	.LFB13
 4351 0084 6C000000 		.4byte	.LFE13
 4352 0088 00000000 		.4byte	.LFB14
 4353 008c 0C000000 		.4byte	.LFE14
 4354 0090 00000000 		.4byte	.LFB15
 4355 0094 0C000000 		.4byte	.LFE15
 4356 0098 00000000 		.4byte	.LFB16
 4357 009c 3C000000 		.4byte	.LFE16
 4358 00a0 00000000 		.4byte	.LFB17
 4359 00a4 40000000 		.4byte	.LFE17
 4360 00a8 00000000 		.4byte	.LFB18
 4361 00ac 80000000 		.4byte	.LFE18
 4362 00b0 00000000 		.4byte	.LFB20
 4363 00b4 60000000 		.4byte	.LFE20
 4364 00b8 00000000 		.4byte	.LFB23
 4365 00bc 28000000 		.4byte	.LFE23
 4366 00c0 00000000 		.4byte	.LFB24
 4367 00c4 28000000 		.4byte	.LFE24
 4368 00c8 00000000 		.4byte	.LFB25
 4369 00cc 28000000 		.4byte	.LFE25
 4370 00d0 00000000 		.4byte	0
 4371 00d4 00000000 		.4byte	0
ARM GAS  C:\Users\karth\AppData\Local\Temp\ccX3KBuT.s 			page 114


 4372              		.section	.debug_line,"",%progbits
 4373              	.Ldebug_line0:
 4374 0000 5B030000 		.section	.debug_str,"MS",%progbits,1
 4374      02008100 
 4374      00000201 
 4374      FB0E0D00 
 4374      01010101 
 4375              	.LASF11:
 4376 0000 75696E74 		.ascii	"uint16\000"
 4376      313600
 4377              	.LASF67:
 4378 0007 61646347 		.ascii	"adcGain\000"
 4378      61696E00 
 4379              	.LASF93:
 4380 000f 43794578 		.ascii	"CyExitCriticalSection\000"
 4380      69744372 
 4380      69746963 
 4380      616C5365 
 4380      6374696F 
 4381              	.LASF27:
 4382 0025 696E7075 		.ascii	"inputRange\000"
 4382      7452616E 
 4382      676500
 4383              	.LASF80:
 4384 0030 4144435F 		.ascii	"ADC_1_Read16\000"
 4384      315F5265 
 4384      61643136 
 4384      00
 4385              	.LASF82:
 4386 003d 4144435F 		.ascii	"ADC_1_gcor\000"
 4386      315F6763 
 4386      6F7200
 4387              	.LASF24:
 4388 0048 67636F72 		.ascii	"gcor\000"
 4388      00
 4389              	.LASF57:
 4390 004d 4144435F 		.ascii	"ADC_1_StopConvert\000"
 4390      315F5374 
 4390      6F70436F 
 4390      6E766572 
 4390      7400
 4391              	.LASF8:
 4392 005f 6C6F6E67 		.ascii	"long long unsigned int\000"
 4392      206C6F6E 
 4392      6720756E 
 4392      7369676E 
 4392      65642069 
 4393              	.LASF42:
 4394 0076 4144435F 		.ascii	"ADC_1_Enable\000"
 4394      315F456E 
 4394      61626C65 
 4394      00
 4395              	.LASF29:
 4396 0083 69646561 		.ascii	"idealOddDecGain\000"
 4396      6C4F6464 
 4396      44656347 
 4396      61696E00 
ARM GAS  C:\Users\karth\AppData\Local\Temp\ccX3KBuT.s 			page 115


 4397              	.LASF7:
 4398 0093 6C6F6E67 		.ascii	"long long int\000"
 4398      206C6F6E 
 4398      6720696E 
 4398      7400
 4399              	.LASF1:
 4400 00a1 7369676E 		.ascii	"signed char\000"
 4400      65642063 
 4400      68617200 
 4401              	.LASF44:
 4402 00ad 4144435F 		.ascii	"ADC_1_Stop\000"
 4402      315F5374 
 4402      6F7000
 4403              	.LASF15:
 4404 00b8 696E7433 		.ascii	"int32\000"
 4404      3200
 4405              	.LASF40:
 4406 00be 4144435F 		.ascii	"ADC_1_InitConfig\000"
 4406      315F496E 
 4406      6974436F 
 4406      6E666967 
 4406      00
 4407              	.LASF60:
 4408 00cf 4144435F 		.ascii	"ADC_1_GetResult8\000"
 4408      315F4765 
 4408      74526573 
 4408      756C7438 
 4408      00
 4409              	.LASF5:
 4410 00e0 6C6F6E67 		.ascii	"long int\000"
 4410      20696E74 
 4410      00
 4411              	.LASF20:
 4412 00e9 72656731 		.ascii	"reg16\000"
 4412      3600
 4413              	.LASF10:
 4414 00ef 75696E74 		.ascii	"uint8\000"
 4414      3800
 4415              	.LASF92:
 4416 00f5 43794465 		.ascii	"CyDelayUs\000"
 4416      6C617955 
 4416      7300
 4417              	.LASF17:
 4418 00ff 646F7562 		.ascii	"double\000"
 4418      6C6500
 4419              	.LASF72:
 4420 0106 566F6C74 		.ascii	"Volts\000"
 4420      7300
 4421              	.LASF83:
 4422 010c 4144435F 		.ascii	"ADC_1_initVar\000"
 4422      315F696E 
 4422      69745661 
 4422      7200
 4423              	.LASF12:
 4424 011a 75696E74 		.ascii	"uint32\000"
 4424      333200
 4425              	.LASF96:
ARM GAS  C:\Users\karth\AppData\Local\Temp\ccX3KBuT.s 			page 116


 4426 0121 4379496E 		.ascii	"CyIntSetVector\000"
 4426      74536574 
 4426      56656374 
 4426      6F7200
 4427              	.LASF84:
 4428 0130 4144435F 		.ascii	"ADC_1_convDone\000"
 4428      315F636F 
 4428      6E76446F 
 4428      6E6500
 4429              	.LASF81:
 4430 013f 4144435F 		.ascii	"ADC_1_Read32\000"
 4430      315F5265 
 4430      61643332 
 4430      00
 4431              	.LASF85:
 4432 014c 4144435F 		.ascii	"ADC_1_stopConversion\000"
 4432      315F7374 
 4432      6F70436F 
 4432      6E766572 
 4432      73696F6E 
 4433              	.LASF43:
 4434 0161 4144435F 		.ascii	"ADC_1_Start\000"
 4434      315F5374 
 4434      61727400 
 4435              	.LASF38:
 4436 016d 76616C75 		.ascii	"value\000"
 4436      6500
 4437              	.LASF59:
 4438 0173 7265744D 		.ascii	"retMode\000"
 4438      6F646500 
 4439              	.LASF95:
 4440 017b 4144435F 		.ascii	"ADC_1_theACLK_SetDividerRegister\000"
 4440      315F7468 
 4440      6541434C 
 4440      4B5F5365 
 4440      74446976 
 4441              	.LASF9:
 4442 019c 756E7369 		.ascii	"unsigned int\000"
 4442      676E6564 
 4442      20696E74 
 4442      00
 4443              	.LASF74:
 4444 01a9 75566F6C 		.ascii	"uVolts\000"
 4444      747300
 4445              	.LASF56:
 4446 01b0 4144435F 		.ascii	"ADC_1_StartConvert\000"
 4446      315F5374 
 4446      61727443 
 4446      6F6E7665 
 4446      727400
 4447              	.LASF6:
 4448 01c3 6C6F6E67 		.ascii	"long unsigned int\000"
 4448      20756E73 
 4448      69676E65 
 4448      6420696E 
 4448      7400
 4449              	.LASF98:
ARM GAS  C:\Users\karth\AppData\Local\Temp\ccX3KBuT.s 			page 117


 4450 01d5 4144435F 		.ascii	"ADC_1_theACLK_SetModeRegister\000"
 4450      315F7468 
 4450      6541434C 
 4450      4B5F5365 
 4450      744D6F64 
 4451              	.LASF91:
 4452 01f3 4379456E 		.ascii	"CyEnterCriticalSection\000"
 4452      74657243 
 4452      72697469 
 4452      63616C53 
 4452      65637469 
 4453              	.LASF4:
 4454 020a 73686F72 		.ascii	"short unsigned int\000"
 4454      7420756E 
 4454      7369676E 
 4454      65642069 
 4454      6E7400
 4455              	.LASF48:
 4456 021d 4144435F 		.ascii	"ADC_1_SetCoherency\000"
 4456      315F5365 
 4456      74436F68 
 4456      6572656E 
 4456      637900
 4457              	.LASF13:
 4458 0230 696E7438 		.ascii	"int8\000"
 4458      00
 4459              	.LASF68:
 4460 0235 4144435F 		.ascii	"ADC_1_CountsTo_mVolts\000"
 4460      315F436F 
 4460      756E7473 
 4460      546F5F6D 
 4460      566F6C74 
 4461              	.LASF88:
 4462 024b 4144435F 		.ascii	"ADC_1_Offset\000"
 4462      315F4F66 
 4462      66736574 
 4462      00
 4463              	.LASF34:
 4464 0258 67636F72 		.ascii	"gcorValue\000"
 4464      56616C75 
 4464      6500
 4465              	.LASF36:
 4466 0262 4144435F 		.ascii	"ADC_1_GainCompensation\000"
 4466      315F4761 
 4466      696E436F 
 4466      6D70656E 
 4466      73617469 
 4467              	.LASF77:
 4468 0279 4144435F 		.ascii	"ADC_1_SelectConfiguration\000"
 4468      315F5365 
 4468      6C656374 
 4468      436F6E66 
 4468      69677572 
 4469              	.LASF70:
 4470 0293 6D566F6C 		.ascii	"mVolts\000"
 4470      747300
 4471              	.LASF32:
ARM GAS  C:\Users\karth\AppData\Local\Temp\ccX3KBuT.s 			page 118


 4472 029a 666C6173 		.ascii	"flash\000"
 4472      6800
 4473              	.LASF21:
 4474 02a0 72656733 		.ascii	"reg32\000"
 4474      3200
 4475              	.LASF53:
 4476 02a6 4144435F 		.ascii	"ADC_1_SetGCOR\000"
 4476      315F5365 
 4476      7447434F 
 4476      5200
 4477              	.LASF16:
 4478 02b4 666C6F61 		.ascii	"float32\000"
 4478      74333200 
 4479              	.LASF23:
 4480 02bc 73697A65 		.ascii	"sizetype\000"
 4480      74797065 
 4480      00
 4481              	.LASF22:
 4482 02c5 6C6F6E67 		.ascii	"long double\000"
 4482      20646F75 
 4482      626C6500 
 4483              	.LASF66:
 4484 02d1 4144435F 		.ascii	"ADC_1_SetGain\000"
 4484      315F5365 
 4484      74476169 
 4484      6E00
 4485              	.LASF41:
 4486 02df 4144435F 		.ascii	"ADC_1_Init\000"
 4486      315F496E 
 4486      697400
 4487              	.LASF49:
 4488 02ea 636F6865 		.ascii	"coherency\000"
 4488      72656E63 
 4488      7900
 4489              	.LASF99:
 4490 02f4 4379496E 		.ascii	"CyIntSetPriority\000"
 4490      74536574 
 4490      5072696F 
 4490      72697479 
 4490      00
 4491              	.LASF46:
 4492 0305 6761696E 		.ascii	"gain\000"
 4492      00
 4493              	.LASF0:
 4494 030a 666C6F61 		.ascii	"float\000"
 4494      7400
 4495              	.LASF89:
 4496 0310 4144435F 		.ascii	"ADC_1_CountsPerVolt\000"
 4496      315F436F 
 4496      756E7473 
 4496      50657256 
 4496      6F6C7400 
 4497              	.LASF58:
 4498 0324 4144435F 		.ascii	"ADC_1_IsEndConversion\000"
 4498      315F4973 
 4498      456E6443 
 4498      6F6E7665 
ARM GAS  C:\Users\karth\AppData\Local\Temp\ccX3KBuT.s 			page 119


 4498      7273696F 
 4499              	.LASF19:
 4500 033a 72656738 		.ascii	"reg8\000"
 4500      00
 4501              	.LASF28:
 4502 033f 69646561 		.ascii	"idealDecGain\000"
 4502      6C446563 
 4502      4761696E 
 4502      00
 4503              	.LASF33:
 4504 034c 6E6F726D 		.ascii	"normalised\000"
 4504      616C6973 
 4504      656400
 4505              	.LASF90:
 4506 0357 43794861 		.ascii	"CyHalt\000"
 4506      6C7400
 4507              	.LASF2:
 4508 035e 756E7369 		.ascii	"unsigned char\000"
 4508      676E6564 
 4508      20636861 
 4508      7200
 4509              	.LASF62:
 4510 036c 4144435F 		.ascii	"ADC_1_GetResult16\000"
 4510      315F4765 
 4510      74526573 
 4510      756C7431 
 4510      3600
 4511              	.LASF87:
 4512 037e 4144435F 		.ascii	"ADC_1_Config\000"
 4512      315F436F 
 4512      6E666967 
 4512      00
 4513              	.LASF3:
 4514 038b 73686F72 		.ascii	"short int\000"
 4514      7420696E 
 4514      7400
 4515              	.LASF35:
 4516 0395 67636F72 		.ascii	"gcorTmp\000"
 4516      546D7000 
 4517              	.LASF97:
 4518 039d 4144435F 		.ascii	"ADC_1_Ext_CP_Clk_SetModeRegister\000"
 4518      315F4578 
 4518      745F4350 
 4518      5F436C6B 
 4518      5F536574 
 4519              	.LASF100:
 4520 03be 474E5520 		.ascii	"GNU C11 5.4.1 20160609 (release) [ARM/embedded-5-br"
 4520      43313120 
 4520      352E342E 
 4520      31203230 
 4520      31363036 
 4521 03f1 616E6368 		.ascii	"anch revision 237715] -mcpu=cortex-m3 -mthumb -g -O"
 4521      20726576 
 4521      6973696F 
 4521      6E203233 
 4521      37373135 
 4522 0424 67202D66 		.ascii	"g -ffunction-sections -ffat-lto-objects\000"
ARM GAS  C:\Users\karth\AppData\Local\Temp\ccX3KBuT.s 			page 120


 4522      66756E63 
 4522      74696F6E 
 4522      2D736563 
 4522      74696F6E 
 4523              	.LASF79:
 4524 044c 4144435F 		.ascii	"ADC_1_Read8\000"
 4524      315F5265 
 4524      61643800 
 4525              	.LASF30:
 4526 0458 7265736F 		.ascii	"resolution\000"
 4526      6C757469 
 4526      6F6E00
 4527              	.LASF26:
 4528 0463 4144435F 		.ascii	"ADC_1_GCOR_STRUCT\000"
 4528      315F4743 
 4528      4F525F53 
 4528      54525543 
 4528      5400
 4529              	.LASF75:
 4530 0475 636F6566 		.ascii	"coefA\000"
 4530      4100
 4531              	.LASF76:
 4532 047b 636F6566 		.ascii	"coefB\000"
 4532      4200
 4533              	.LASF18:
 4534 0481 63686172 		.ascii	"char\000"
 4534      00
 4535              	.LASF55:
 4536 0486 6756616C 		.ascii	"gValue\000"
 4536      756500
 4537              	.LASF54:
 4538 048d 4144435F 		.ascii	"ADC_1_ReadGCOR\000"
 4538      315F5265 
 4538      61644743 
 4538      4F5200
 4539              	.LASF31:
 4540 049c 636F6E66 		.ascii	"config\000"
 4540      696700
 4541              	.LASF25:
 4542 04a3 6776616C 		.ascii	"gval\000"
 4542      00
 4543              	.LASF101:
 4544 04a8 47656E65 		.ascii	"Generated_Source\\PSoC5\\ADC_1.c\000"
 4544      72617465 
 4544      645F536F 
 4544      75726365 
 4544      5C50536F 
 4545              	.LASF71:
 4546 04c7 4144435F 		.ascii	"ADC_1_CountsTo_Volts\000"
 4546      315F436F 
 4546      756E7473 
 4546      546F5F56 
 4546      6F6C7473 
 4547              	.LASF78:
 4548 04dc 72657374 		.ascii	"restart\000"
 4548      61727400 
 4549              	.LASF52:
ARM GAS  C:\Users\karth\AppData\Local\Temp\ccX3KBuT.s 			page 121


 4550 04e4 746D7056 		.ascii	"tmpValue\000"
 4550      616C7565 
 4550      00
 4551              	.LASF45:
 4552 04ed 4144435F 		.ascii	"ADC_1_SetBufferGain\000"
 4552      315F5365 
 4552      74427566 
 4552      66657247 
 4552      61696E00 
 4553              	.LASF65:
 4554 0501 6F666673 		.ascii	"offset\000"
 4554      657400
 4555              	.LASF69:
 4556 0508 61646343 		.ascii	"adcCounts\000"
 4556      6F756E74 
 4556      7300
 4557              	.LASF39:
 4558 0512 656E6162 		.ascii	"enableInterrupts\000"
 4558      6C65496E 
 4558      74657272 
 4558      75707473 
 4558      00
 4559              	.LASF86:
 4560 0523 4144435F 		.ascii	"ADC_1_started\000"
 4560      315F7374 
 4560      61727465 
 4560      6400
 4561              	.LASF94:
 4562 0531 4144435F 		.ascii	"ADC_1_Ext_CP_Clk_SetDividerRegister\000"
 4562      315F4578 
 4562      745F4350 
 4562      5F436C6B 
 4562      5F536574 
 4563              	.LASF51:
 4564 0555 73746174 		.ascii	"status\000"
 4564      757300
 4565              	.LASF50:
 4566 055c 6761696E 		.ascii	"gainAdjust\000"
 4566      41646A75 
 4566      737400
 4567              	.LASF63:
 4568 0567 4144435F 		.ascii	"ADC_1_GetResult32\000"
 4568      315F4765 
 4568      74526573 
 4568      756C7433 
 4568      3200
 4569              	.LASF64:
 4570 0579 4144435F 		.ascii	"ADC_1_SetOffset\000"
 4570      315F5365 
 4570      744F6666 
 4570      73657400 
 4571              	.LASF14:
 4572 0589 696E7431 		.ascii	"int16\000"
 4572      3600
 4573              	.LASF37:
 4574 058f 4144435F 		.ascii	"ADC_1_SetDSMRef0Reg\000"
 4574      315F5365 
ARM GAS  C:\Users\karth\AppData\Local\Temp\ccX3KBuT.s 			page 122


 4574      7444534D 
 4574      52656630 
 4574      52656700 
 4575              	.LASF102:
 4576 05a3 433A5C55 		.ascii	"C:\\Users\\karth\\Downloads\\conductometry\\psoc-lo"
 4576      73657273 
 4576      5C6B6172 
 4576      74685C44 
 4576      6F776E6C 
 4577 05d1 636B2D69 		.ascii	"ck-in-H2O-conductance\\Lock-in_H2O_02b.cydsn\000"
 4577      6E2D4832 
 4577      4F2D636F 
 4577      6E647563 
 4577      74616E63 
 4578              	.LASF47:
 4579 05fd 746D7052 		.ascii	"tmpReg\000"
 4579      656700
 4580              	.LASF61:
 4581 0604 72657375 		.ascii	"result\000"
 4581      6C7400
 4582              	.LASF73:
 4583 060b 4144435F 		.ascii	"ADC_1_CountsTo_uVolts\000"
 4583      315F436F 
 4583      756E7473 
 4583      546F5F75 
 4583      566F6C74 
 4584              		.ident	"GCC: (GNU Tools for ARM Embedded Processors) 5.4.1 20160609 (release) [ARM/embedded-5-bran
