ARM GAS  C:\Users\karth\AppData\Local\Temp\cc6ec1D0.s 			page 1


   1              		.syntax unified
   2              		.cpu cortex-m3
   3              		.fpu softvfp
   4              		.eabi_attribute 20, 1
   5              		.eabi_attribute 21, 1
   6              		.eabi_attribute 23, 3
   7              		.eabi_attribute 24, 1
   8              		.eabi_attribute 25, 1
   9              		.eabi_attribute 26, 1
  10              		.eabi_attribute 30, 1
  11              		.eabi_attribute 34, 1
  12              		.eabi_attribute 18, 4
  13              		.thumb
  14              		.syntax unified
  15              		.file	"Filter_1.c"
  16              		.text
  17              	.Ltext0:
  18              		.cfi_sections	.debug_frame
  19              		.section	.text.Filter_1_AddValue,"ax",%progbits
  20              		.align	2
  21              		.global	Filter_1_AddValue
  22              		.thumb
  23              		.thumb_func
  24              		.type	Filter_1_AddValue, %function
  25              	Filter_1_AddValue:
  26              	.LFB63:
  27              		.file 1 "Generated_Source\\PSoC5\\Filter_1.c"
   1:Generated_Source\PSoC5/Filter_1.c **** /* ============================================================================
   2:Generated_Source\PSoC5/Filter_1.c ****  * Component Name: MedianFilter_v0_0
   3:Generated_Source\PSoC5/Filter_1.c ****  *
   4:Generated_Source\PSoC5/Filter_1.c ****  * Description:
   5:Generated_Source\PSoC5/Filter_1.c ****  *   Fast Median Filter component implementation for streamed data
   6:Generated_Source\PSoC5/Filter_1.c ****  *   Range: int8, int16, int32, uint8, uint16, uin32
   7:Generated_Source\PSoC5/Filter_1.c ****  *   Has has fixed execution time: 86 + N * 26; N-filter size
   8:Generated_Source\PSoC5/Filter_1.c ****  *
   9:Generated_Source\PSoC5/Filter_1.c ****  * Credits:
  10:Generated_Source\PSoC5/Filter_1.c ****  *   Phil Ekstrom median filtering algorithm:
  11:Generated_Source\PSoC5/Filter_1.c ****  *   https://www.embedded.com/better-than-average/
  12:Generated_Source\PSoC5/Filter_1.c ****  *   https://embeddedgurus.com/stack-overflow/2010/10/median-filtering/  (code borrowed from here)
  13:Generated_Source\PSoC5/Filter_1.c ****  *
  14:Generated_Source\PSoC5/Filter_1.c ****  * Uses:
  15:Generated_Source\PSoC5/Filter_1.c ****  *   Serial PLOT v0.10.0
  16:Generated_Source\PSoC5/Filter_1.c ****  *   by Yavuz Ozderya
  17:Generated_Source\PSoC5/Filter_1.c ****  *   https://hasanyavuz.ozderya.net/?p=244
  18:Generated_Source\PSoC5/Filter_1.c ****  *   https://bitbucket.org/hyOzd/serialplot   
  19:Generated_Source\PSoC5/Filter_1.c ****  *
  20:Generated_Source\PSoC5/Filter_1.c ****  * ============================================================================
  21:Generated_Source\PSoC5/Filter_1.c ****  * PROVIDED AS-IS, NO WARRANTY OF ANY KIND, INCLUDING, BUT NOT LIMITED TO, THE
  22:Generated_Source\PSoC5/Filter_1.c ****  * IMPLIED WARRANTIES OF MERCHANTABILITY AND FITNESS FOR A PARTICULAR PURPOSE.
  23:Generated_Source\PSoC5/Filter_1.c ****  * FREE TO SHARE, USE AND MODIFY UNDER TERMS: CREATIVE COMMONS - SHARE ALIKE
  24:Generated_Source\PSoC5/Filter_1.c ****  * ============================================================================
  25:Generated_Source\PSoC5/Filter_1.c **** */
  26:Generated_Source\PSoC5/Filter_1.c **** 
  27:Generated_Source\PSoC5/Filter_1.c **** 
  28:Generated_Source\PSoC5/Filter_1.c **** #include <Filter_1.h> // must specify API prefix in Symbol->Properties->Doc.APIPrefix
  29:Generated_Source\PSoC5/Filter_1.c **** 
  30:Generated_Source\PSoC5/Filter_1.c **** 
ARM GAS  C:\Users\karth\AppData\Local\Temp\cc6ec1D0.s 			page 2


  31:Generated_Source\PSoC5/Filter_1.c **** //====================================
  32:Generated_Source\PSoC5/Filter_1.c **** //        read-only parameters
  33:Generated_Source\PSoC5/Filter_1.c **** //====================================
  34:Generated_Source\PSoC5/Filter_1.c **** 
  35:Generated_Source\PSoC5/Filter_1.c **** #define FilterSize  (21)    // Filter length  
  36:Generated_Source\PSoC5/Filter_1.c **** #define STOPPER     ((int32_t) 0x80000000)       // STOPPER must be smaller than any datum, -128(in
  37:Generated_Source\PSoC5/Filter_1.c **** 
  38:Generated_Source\PSoC5/Filter_1.c **** 
  39:Generated_Source\PSoC5/Filter_1.c **** //====================================
  40:Generated_Source\PSoC5/Filter_1.c **** //        private variables
  41:Generated_Source\PSoC5/Filter_1.c **** //====================================
  42:Generated_Source\PSoC5/Filter_1.c **** 
  43:Generated_Source\PSoC5/Filter_1.c **** 
  44:Generated_Source\PSoC5/Filter_1.c **** 
  45:Generated_Source\PSoC5/Filter_1.c **** //==============================================================================
  46:Generated_Source\PSoC5/Filter_1.c **** // Median filter. Input: next data value; output: filtered data 
  47:Generated_Source\PSoC5/Filter_1.c **** //==============================================================================
  48:Generated_Source\PSoC5/Filter_1.c **** int32 Filter_1_AddValue(int32 datum)
  49:Generated_Source\PSoC5/Filter_1.c **** {
  28              		.loc 1 49 0
  29              		.cfi_startproc
  30              		@ args = 0, pretend = 0, frame = 0
  31              		@ frame_needed = 0, uses_anonymous_args = 0
  32              		@ link register save eliminated.
  33              	.LVL0:
  34 0000 F0B4     		push	{r4, r5, r6, r7}
  35              		.cfi_def_cfa_offset 16
  36              		.cfi_offset 4, -16
  37              		.cfi_offset 5, -12
  38              		.cfi_offset 6, -8
  39              		.cfi_offset 7, -4
  50:Generated_Source\PSoC5/Filter_1.c ****     
  51:Generated_Source\PSoC5/Filter_1.c ****     struct pair
  52:Generated_Source\PSoC5/Filter_1.c ****     {
  53:Generated_Source\PSoC5/Filter_1.c ****         struct pair *point;                                 // Pointers forming list linked in sort
  54:Generated_Source\PSoC5/Filter_1.c ****         int32   value;                                 // Values to sort 
  55:Generated_Source\PSoC5/Filter_1.c ****     };
  56:Generated_Source\PSoC5/Filter_1.c ****  
  57:Generated_Source\PSoC5/Filter_1.c ****     static struct pair buffer[FilterSize]={};               // Buffer of nwidth pairs 
  58:Generated_Source\PSoC5/Filter_1.c ****     static struct pair *datpoint = buffer;                  // Pointer into circular buffer of data
  59:Generated_Source\PSoC5/Filter_1.c ****     static struct pair small = {NULL, STOPPER};             // Chain stopper 
  60:Generated_Source\PSoC5/Filter_1.c ****     static struct pair big = {&small, 0};                   // Pointer to head (largest) of linked 
  61:Generated_Source\PSoC5/Filter_1.c ****    
  62:Generated_Source\PSoC5/Filter_1.c ****     struct pair *successor;                                 // Pointer to successor of replaced dat
  63:Generated_Source\PSoC5/Filter_1.c ****     struct pair *scan;                                      // Pointer used to scan down the sorted
  64:Generated_Source\PSoC5/Filter_1.c ****     struct pair *scanold;                                   // Previous value of scan 
  65:Generated_Source\PSoC5/Filter_1.c ****     struct pair *median;                                    // Pointer to median 
  66:Generated_Source\PSoC5/Filter_1.c ****     
  67:Generated_Source\PSoC5/Filter_1.c **** 
  68:Generated_Source\PSoC5/Filter_1.c ****     if (datum == STOPPER) { datum =  STOPPER + 1; }         // No stoppers allowed.   
  40              		.loc 1 68 0
  41 0002 B0F1004F 		cmp	r0, #-2147483648
  42 0006 00D1     		bne	.L2
  43 0008 0130     		adds	r0, r0, #1
  44              	.LVL1:
  45              	.L2:
  69:Generated_Source\PSoC5/Filter_1.c **** 
ARM GAS  C:\Users\karth\AppData\Local\Temp\cc6ec1D0.s 			page 3


  70:Generated_Source\PSoC5/Filter_1.c ****     if ( (++datpoint - buffer) >= FilterSize) {
  46              		.loc 1 70 0
  47 000a 204A     		ldr	r2, .L14
  48 000c 9368     		ldr	r3, [r2, #8]
  49 000e 0833     		adds	r3, r3, #8
  50 0010 9360     		str	r3, [r2, #8]
  51 0012 1F4A     		ldr	r2, .L14+4
  52 0014 9B1A     		subs	r3, r3, r2
  53 0016 A72B     		cmp	r3, #167
  54 0018 01DD     		ble	.L3
  71:Generated_Source\PSoC5/Filter_1.c ****         datpoint = buffer;                                  // Increment and wrap data in pointer.
  55              		.loc 1 71 0
  56 001a 1C4B     		ldr	r3, .L14
  57 001c 9A60     		str	r2, [r3, #8]
  58              	.L3:
  72:Generated_Source\PSoC5/Filter_1.c ****     }
  73:Generated_Source\PSoC5/Filter_1.c **** 
  74:Generated_Source\PSoC5/Filter_1.c ****     datpoint->value = datum;                                // Copy in new datum 
  59              		.loc 1 74 0
  60 001e 1B4B     		ldr	r3, .L14
  61 0020 9D68     		ldr	r5, [r3, #8]
  62 0022 6860     		str	r0, [r5, #4]
  75:Generated_Source\PSoC5/Filter_1.c ****     successor = datpoint->point;                            // Save pointer to old value's successo
  63              		.loc 1 75 0
  64 0024 2F68     		ldr	r7, [r5]
  65              	.LVL2:
  76:Generated_Source\PSoC5/Filter_1.c ****     median = &big;                                          // Median initially to first in chain 
  77:Generated_Source\PSoC5/Filter_1.c ****     scanold = NULL;                                         // Scanold initially null. 
  78:Generated_Source\PSoC5/Filter_1.c ****     scan = &big;                                            // Points to pointer to first (largest)
  79:Generated_Source\PSoC5/Filter_1.c **** 
  80:Generated_Source\PSoC5/Filter_1.c ****     
  81:Generated_Source\PSoC5/Filter_1.c ****     if (scan->point == datpoint) {                          // Handle chain-out of first item in ch
  66              		.loc 1 81 0
  67 0026 1B68     		ldr	r3, [r3]
  68 0028 9D42     		cmp	r5, r3
  69 002a 01D1     		bne	.L4
  82:Generated_Source\PSoC5/Filter_1.c ****         scan->point = successor;
  70              		.loc 1 82 0
  71 002c 174B     		ldr	r3, .L14
  72 002e 1F60     		str	r7, [r3]
  73              	.L4:
  74              	.LVL3:
  83:Generated_Source\PSoC5/Filter_1.c ****     }
  84:Generated_Source\PSoC5/Filter_1.c ****     
  85:Generated_Source\PSoC5/Filter_1.c ****     scanold = scan;                                         // Save this pointer and   
  86:Generated_Source\PSoC5/Filter_1.c ****     scan = scan->point ;                                    // step down chain 
  75              		.loc 1 86 0
  76 0030 164B     		ldr	r3, .L14
  77 0032 1A68     		ldr	r2, [r3]
  78              	.LVL4:
  87:Generated_Source\PSoC5/Filter_1.c ****  
  88:Generated_Source\PSoC5/Filter_1.c ****     uint16 i;
  89:Generated_Source\PSoC5/Filter_1.c ****     for (i = 0; i < FilterSize; ++i)                        // Loop through the chain, normal loop 
  79              		.loc 1 89 0
  80 0034 0021     		movs	r1, #0
  76:Generated_Source\PSoC5/Filter_1.c ****     scanold = NULL;                                         // Scanold initially null. 
  81              		.loc 1 76 0
ARM GAS  C:\Users\karth\AppData\Local\Temp\cc6ec1D0.s 			page 4


  82 0036 1E46     		mov	r6, r3
  83              		.loc 1 89 0
  84 0038 22E0     		b	.L5
  85              	.LVL5:
  86              	.L11:
  90:Generated_Source\PSoC5/Filter_1.c ****     {
  91:Generated_Source\PSoC5/Filter_1.c ****          
  92:Generated_Source\PSoC5/Filter_1.c ****         if (scan->point == datpoint) {                      // Handle odd-numbered item in chain 
  87              		.loc 1 92 0
  88 003a 1468     		ldr	r4, [r2]
  89 003c A542     		cmp	r5, r4
  90 003e 00D1     		bne	.L6
  93:Generated_Source\PSoC5/Filter_1.c ****             scan->point = successor;                        // Chain out the old datum.
  91              		.loc 1 93 0
  92 0040 1760     		str	r7, [r2]
  93              	.L6:
  94:Generated_Source\PSoC5/Filter_1.c ****         }
  95:Generated_Source\PSoC5/Filter_1.c **** 
  96:Generated_Source\PSoC5/Filter_1.c ****         if (scan->value < datum)                            // If datum is larger than scanned valu
  94              		.loc 1 96 0
  95 0042 5468     		ldr	r4, [r2, #4]
  96 0044 A042     		cmp	r0, r4
  97 0046 04DD     		ble	.L7
  97:Generated_Source\PSoC5/Filter_1.c ****         {
  98:Generated_Source\PSoC5/Filter_1.c ****             datpoint->point = scanold->point;               // Chain it in here.  
  98              		.loc 1 98 0
  99 0048 1868     		ldr	r0, [r3]
 100              	.LVL6:
 101 004a 2860     		str	r0, [r5]
  99:Generated_Source\PSoC5/Filter_1.c ****             scanold->point  = datpoint;                     // Mark it chained in. 
 102              		.loc 1 99 0
 103 004c 1D60     		str	r5, [r3]
 104              	.LVL7:
 100:Generated_Source\PSoC5/Filter_1.c ****             datum = STOPPER;
 105              		.loc 1 100 0
 106 004e 4FF00040 		mov	r0, #-2147483648
 107              	.LVL8:
 108              	.L7:
 101:Generated_Source\PSoC5/Filter_1.c ****         };
 102:Generated_Source\PSoC5/Filter_1.c **** 
 103:Generated_Source\PSoC5/Filter_1.c ****         // Step median pointer down chain after doing odd-numbered element 
 104:Generated_Source\PSoC5/Filter_1.c ****         median = median->point;                             // Step median pointer.  
 109              		.loc 1 104 0
 110 0052 3668     		ldr	r6, [r6]
 111              	.LVL9:
 105:Generated_Source\PSoC5/Filter_1.c ****         
 106:Generated_Source\PSoC5/Filter_1.c ****         if (scan == &small) break;                          // Break at end of chain  
 112              		.loc 1 106 0
 113 0054 0F4B     		ldr	r3, .L14+8
 114              	.LVL10:
 115 0056 9A42     		cmp	r2, r3
 116 0058 14D0     		beq	.L8
 117              	.LVL11:
 107:Generated_Source\PSoC5/Filter_1.c ****         
 108:Generated_Source\PSoC5/Filter_1.c ****         scanold = scan;                                     // Save this pointer and   
 109:Generated_Source\PSoC5/Filter_1.c ****         scan = scan->point;                                 // step down chain 
 118              		.loc 1 109 0
ARM GAS  C:\Users\karth\AppData\Local\Temp\cc6ec1D0.s 			page 5


 119 005a 1368     		ldr	r3, [r2]
 120              	.LVL12:
 110:Generated_Source\PSoC5/Filter_1.c ****   
 111:Generated_Source\PSoC5/Filter_1.c ****         if (scan->point == datpoint) {                      // Handle even-numbered item in chain.
 121              		.loc 1 111 0
 122 005c 1C68     		ldr	r4, [r3]
 123 005e A542     		cmp	r5, r4
 124 0060 00D1     		bne	.L9
 112:Generated_Source\PSoC5/Filter_1.c ****             scan->point = successor;
 125              		.loc 1 112 0
 126 0062 1F60     		str	r7, [r3]
 127              	.L9:
 113:Generated_Source\PSoC5/Filter_1.c ****         }
 114:Generated_Source\PSoC5/Filter_1.c **** 
 115:Generated_Source\PSoC5/Filter_1.c ****         if (scan->value < datum)
 128              		.loc 1 115 0
 129 0064 5C68     		ldr	r4, [r3, #4]
 130 0066 A042     		cmp	r0, r4
 131 0068 04DD     		ble	.L10
 116:Generated_Source\PSoC5/Filter_1.c ****         {
 117:Generated_Source\PSoC5/Filter_1.c ****             datpoint->point = scanold->point;
 132              		.loc 1 117 0
 133 006a 1068     		ldr	r0, [r2]
 134              	.LVL13:
 135 006c 2860     		str	r0, [r5]
 118:Generated_Source\PSoC5/Filter_1.c ****             scanold->point  = datpoint;
 136              		.loc 1 118 0
 137 006e 1560     		str	r5, [r2]
 138              	.LVL14:
 119:Generated_Source\PSoC5/Filter_1.c ****             datum = STOPPER;
 139              		.loc 1 119 0
 140 0070 4FF00040 		mov	r0, #-2147483648
 141              	.LVL15:
 142              	.L10:
 120:Generated_Source\PSoC5/Filter_1.c ****         }
 121:Generated_Source\PSoC5/Filter_1.c **** 
 122:Generated_Source\PSoC5/Filter_1.c ****         if (scan == &small) break;
 143              		.loc 1 122 0
 144 0074 074A     		ldr	r2, .L14+8
 145              	.LVL16:
 146 0076 9342     		cmp	r3, r2
 147 0078 04D0     		beq	.L8
 148              	.LVL17:
 123:Generated_Source\PSoC5/Filter_1.c **** 
 124:Generated_Source\PSoC5/Filter_1.c ****         scanold = scan;
 125:Generated_Source\PSoC5/Filter_1.c ****         scan = scan->point;
 149              		.loc 1 125 0 discriminator 2
 150 007a 1A68     		ldr	r2, [r3]
 151              	.LVL18:
  89:Generated_Source\PSoC5/Filter_1.c ****     {
 152              		.loc 1 89 0 discriminator 2
 153 007c 0131     		adds	r1, r1, #1
 154              	.LVL19:
 155 007e 89B2     		uxth	r1, r1
 156              	.LVL20:
 157              	.L5:
  89:Generated_Source\PSoC5/Filter_1.c ****     {
ARM GAS  C:\Users\karth\AppData\Local\Temp\cc6ec1D0.s 			page 6


 158              		.loc 1 89 0 is_stmt 0 discriminator 1
 159 0080 1429     		cmp	r1, #20
 160 0082 DAD9     		bls	.L11
 161              	.LVL21:
 162              	.L8:
 126:Generated_Source\PSoC5/Filter_1.c ****     }
 127:Generated_Source\PSoC5/Filter_1.c ****  
 128:Generated_Source\PSoC5/Filter_1.c ****     return median->value;
 129:Generated_Source\PSoC5/Filter_1.c **** }
 163              		.loc 1 129 0 is_stmt 1
 164 0084 7068     		ldr	r0, [r6, #4]
 165              	.LVL22:
 166 0086 F0BC     		pop	{r4, r5, r6, r7}
 167              		.cfi_restore 7
 168              		.cfi_restore 6
 169              		.cfi_restore 5
 170              		.cfi_restore 4
 171              		.cfi_def_cfa_offset 0
 172              	.LVL23:
 173 0088 7047     		bx	lr
 174              	.L15:
 175 008a 00BF     		.align	2
 176              	.L14:
 177 008c 00000000 		.word	.LANCHOR0
 178 0090 00000000 		.word	.LANCHOR1
 179 0094 0C000000 		.word	.LANCHOR0+12
 180              		.cfi_endproc
 181              	.LFE63:
 182              		.size	Filter_1_AddValue, .-Filter_1_AddValue
 183              		.comm	Button_1_Pressed,4,4
 184              		.data
 185              		.align	2
 186              		.set	.LANCHOR0,. + 0
 187              		.type	big.5922, %object
 188              		.size	big.5922, 8
 189              	big.5922:
 190 0000 0C000000 		.word	small.5921
 191 0004 00000000 		.word	0
 192              		.type	datpoint.5920, %object
 193              		.size	datpoint.5920, 4
 194              	datpoint.5920:
 195 0008 00000000 		.word	buffer.5919
 196              		.type	small.5921, %object
 197              		.size	small.5921, 8
 198              	small.5921:
 199 000c 00000000 		.word	0
 200 0010 00000080 		.word	-2147483648
 201              		.bss
 202              		.align	2
 203              		.set	.LANCHOR1,. + 0
 204              		.type	buffer.5919, %object
 205              		.size	buffer.5919, 168
 206              	buffer.5919:
 207 0000 00000000 		.space	168
 207      00000000 
 207      00000000 
 207      00000000 
ARM GAS  C:\Users\karth\AppData\Local\Temp\cc6ec1D0.s 			page 7


 207      00000000 
 208              		.text
 209              	.Letext0:
 210              		.file 2 "c:\\program files (x86)\\cypress\\psoc creator\\4.2\\psoc creator\\import\\gnu\\arm\\5.4.
 211              		.file 3 "c:\\program files (x86)\\cypress\\psoc creator\\4.2\\psoc creator\\import\\gnu\\arm\\5.4.
 212              		.file 4 "Generated_Source\\PSoC5/cytypes.h"
 213              		.file 5 "Generated_Source\\PSoC5/core_cm3.h"
 214              		.file 6 "Generated_Source\\PSoC5/Button_1.h"