ARM GAS  C:\Users\karth\AppData\Local\Temp\cckEKglN.s 			page 1


   1              		.syntax unified
   2              		.cpu cortex-m3
   3              		.fpu softvfp
   4              		.eabi_attribute 20, 1
   5              		.eabi_attribute 21, 1
   6              		.eabi_attribute 23, 3
   7              		.eabi_attribute 24, 1
   8              		.eabi_attribute 25, 1
   9              		.eabi_attribute 26, 1
  10              		.eabi_attribute 30, 1
  11              		.eabi_attribute 34, 1
  12              		.eabi_attribute 18, 4
  13              		.thumb
  14              		.syntax unified
  15              		.file	"main.c"
  16              		.text
  17              	.Ltext0:
  18              		.cfi_sections	.debug_frame
  19              		.section	.text.isrADC_InterruptHandler,"ax",%progbits
  20              		.align	2
  21              		.global	isrADC_InterruptHandler
  22              		.thumb
  23              		.thumb_func
  24              		.type	isrADC_InterruptHandler, %function
  25              	isrADC_InterruptHandler:
  26              	.LFB63:
  27              		.file 1 "main.c"
   1:main.c        **** /*******************************************************************************
   2:main.c        **** * File Name: main.c
   3:main.c        **** *
   4:main.c        **** * Version: 1.20
   5:main.c        **** *
   6:main.c        **** * Description: 
   7:main.c        **** *   This is a source code for example project of Lock-in amplifier using Delta-Sigma ADC.
   8:main.c        **** *   It is intended for water conductivity measurement
   9:main.c        **** *
  10:main.c        **** ********************************************************************************
  11:main.c        **** * NO WARRANTY OF ANY KIND, EXPRESS OR IMPLIED,
  12:main.c        **** * WITH REGARD TO THIS SOFTWARE, INCLUDING, BUT NOT LIMITED TO, NONINFRINGEMENT,
  13:main.c        **** * IMPLIED WARRANTIES OF MERCHANTABILITY AND FITNESS FOR A PARTICULAR PURPOSE.
  14:main.c        **** *******************************************************************************/
  15:main.c        **** 
  16:main.c        **** #include "project.h"
  17:main.c        **** 
  18:main.c        **** #define BlinkLED(); {Pin_LED_Write(1); CyDelayUs(30); Pin_LED_Write(0);} // blink LED indicator
  19:main.c        **** 
  20:main.c        **** 
  21:main.c        **** 
  22:main.c        **** 
  23:main.c        **** 
  24:main.c        **** 
  25:main.c        **** //===========================================
  26:main.c        **** // 
  27:main.c        **** //===========================================
  28:main.c        **** 
  29:main.c        **** static volatile CYBIT isrADC_flag = 0; // semaphore between ISR and main()
  30:main.c        **** static volatile uint32 ADC_1_result; //
ARM GAS  C:\Users\karth\AppData\Local\Temp\cckEKglN.s 			page 2


  31:main.c        **** //CY_ISR_PROTO(isrADC_InterruptHandler);//declaration
  32:main.c        **** CY_ISR(isrADC_InterruptHandler)
  33:main.c        **** {
  28              		.loc 1 33 0
  29              		.cfi_startproc
  30              		@ args = 0, pretend = 0, frame = 0
  31              		@ frame_needed = 0, uses_anonymous_args = 0
  32 0000 10B5     		push	{r4, lr}
  33              		.cfi_def_cfa_offset 8
  34              		.cfi_offset 4, -8
  35              		.cfi_offset 14, -4
  34:main.c        ****     isrADC_flag = 1;
  36              		.loc 1 34 0
  37 0002 034C     		ldr	r4, .L3
  38 0004 0123     		movs	r3, #1
  39 0006 2370     		strb	r3, [r4]
  35:main.c        ****     ADC_1_result = ADC_1_GetResult32();
  40              		.loc 1 35 0
  41 0008 FFF7FEFF 		bl	ADC_1_GetResult32
  42              	.LVL0:
  43 000c 6060     		str	r0, [r4, #4]
  44 000e 10BD     		pop	{r4, pc}
  45              	.L4:
  46              		.align	2
  47              	.L3:
  48 0010 00000000 		.word	.LANCHOR0
  49              		.cfi_endproc
  50              	.LFE63:
  51              		.size	isrADC_InterruptHandler, .-isrADC_InterruptHandler
  52              		.section	.text.Init,"ax",%progbits
  53              		.align	2
  54              		.global	Init
  55              		.thumb
  56              		.thumb_func
  57              		.type	Init, %function
  58              	Init:
  59              	.LFB64:
  36:main.c        **** }
  37:main.c        **** 
  38:main.c        **** 
  39:main.c        **** //===========================================
  40:main.c        **** // Global variables
  41:main.c        **** //===========================================
  42:main.c        **** //int32 IIRout;
  43:main.c        **** int32 Med_filter;
  44:main.c        **** int32 ADC_Offset = 0;
  45:main.c        **** 
  46:main.c        **** 
  47:main.c        **** 
  48:main.c        **** 
  49:main.c        **** //===========================================
  50:main.c        **** // Function prototypes
  51:main.c        **** //===========================================
  52:main.c        **** void DMA_Config(void);
  53:main.c        **** int32 LowPassFilter(int32 input);
  54:main.c        **** 
  55:main.c        **** 
ARM GAS  C:\Users\karth\AppData\Local\Temp\cckEKglN.s 			page 3


  56:main.c        **** void Init()
  57:main.c        **** {
  60              		.loc 1 57 0
  61              		.cfi_startproc
  62              		@ args = 0, pretend = 0, frame = 0
  63              		@ frame_needed = 0, uses_anonymous_args = 0
  64 0000 08B5     		push	{r3, lr}
  65              		.cfi_def_cfa_offset 8
  66              		.cfi_offset 3, -8
  67              		.cfi_offset 14, -4
  58:main.c        ****     CyGlobalIntEnable; //enable global interrupts
  68              		.loc 1 58 0
  69              		.syntax unified
  70              	@ 58 "main.c" 1
  71 0002 62B6     		CPSIE   i
  72              	@ 0 "" 2
  59:main.c        ****     
  60:main.c        ****     UART_1_Start();
  73              		.loc 1 60 0
  74              		.thumb
  75              		.syntax unified
  76 0004 FFF7FEFF 		bl	UART_1_Start
  77              	.LVL1:
  61:main.c        ****     CyDelay(100);
  78              		.loc 1 61 0
  79 0008 6420     		movs	r0, #100
  80 000a FFF7FEFF 		bl	CyDelay
  81              	.LVL2:
  62:main.c        ****     
  63:main.c        ****     Button_1_Start();               // Start Button switch      
  82              		.loc 1 63 0
  83 000e FFF7FEFF 		bl	Button_1_Start
  84              	.LVL3:
  64:main.c        **** 
  65:main.c        ****     //ADC_1_IRQ_Start();//not required
  66:main.c        ****     ADC_1_Start();
  85              		.loc 1 66 0
  86 0012 FFF7FEFF 		bl	ADC_1_Start
  87              	.LVL4:
  67:main.c        ****     //ADC_1_IRQ_StartEx(ADC_1_IRQ_myInterrupt);//MUST be placed AFTER ADC1_Start()
  68:main.c        ****     isrADC_StartEx(isrADC_InterruptHandler);//MUST be placed AFTER ADC1_Start()
  88              		.loc 1 68 0
  89 0016 0348     		ldr	r0, .L7
  90 0018 FFF7FEFF 		bl	isrADC_StartEx
  91              	.LVL5:
  69:main.c        ****     ADC_1_StartConvert();//only for free-running ADC
  92              		.loc 1 69 0
  93 001c FFF7FEFF 		bl	ADC_1_StartConvert
  94              	.LVL6:
  95 0020 08BD     		pop	{r3, pc}
  96              	.L8:
  97 0022 00BF     		.align	2
  98              	.L7:
  99 0024 00000000 		.word	isrADC_InterruptHandler
 100              		.cfi_endproc
 101              	.LFE64:
 102              		.size	Init, .-Init
ARM GAS  C:\Users\karth\AppData\Local\Temp\cckEKglN.s 			page 4


 103              		.section	.text.LowPassFilter,"ax",%progbits
 104              		.align	2
 105              		.global	LowPassFilter
 106              		.thumb
 107              		.thumb_func
 108              		.type	LowPassFilter, %function
 109              	LowPassFilter:
 110              	.LFB66:
  70:main.c        **** }
  71:main.c        **** 
  72:main.c        **** int main(void)
  73:main.c        **** {
  74:main.c        ****     Init();
  75:main.c        **** 
  76:main.c        **** 
  77:main.c        ****     for(;;)
  78:main.c        ****     {
  79:main.c        ****         if(isrADC_flag != 0) // monitor for ADC1 interrupt
  80:main.c        ****         {
  81:main.c        ****             isrADC_flag = 0;
  82:main.c        ****             //BlinkLED();
  83:main.c        ****             
  84:main.c        ****             ADC_1_result -= ADC_Offset;
  85:main.c        ****             
  86:main.c        ****             int32 IIR_filter = LowPassFilter(ADC_1_result);
  87:main.c        ****             Med_filter = Filter_1_AddValue(ADC_1_result);
  88:main.c        **** //            Vadc = ADC1_CountsTo_uVolts( ADC1_result );
  89:main.c        **** //            sprintf(strMsg1,"ADC:%d, Vadc:%d\r\n",  ADC1_result, Vadc);
  90:main.c        **** //            sprintf(strMsg1,"ADC:%d, V:%.3f\r\n",  ADC1_result,(float) 0.000001*VTherm);
  91:main.c        **** //            sprintf(strMsg1,"ADC:%d\r\n",  ADC1_result);
  92:main.c        **** //          BT_Receiver_PutString(strMsg1);
  93:main.c        ****             Chart_1_Plot(ADC_1_result, IIR_filter, Med_filter);
  94:main.c        ****         }
  95:main.c        ****        
  96:main.c        ****         // tare option
  97:main.c        ****         if (Button_1_Pressed!=0)                            // some buttons were pressed
  98:main.c        ****         {
  99:main.c        ****             uint32 status = Button_1_Pressed;               // capture state
 100:main.c        ****             Button_1_Pressed = 0;                           // clear flag
 101:main.c        ****             
 102:main.c        ****             if (status & BTN_0)                             // Button 0 pressed
 103:main.c        ****             {
 104:main.c        ****                 BlinkLED();                                 // debug..
 105:main.c        ****                 ADC_Offset += Med_filter; // tare: update offset to zero output 
 106:main.c        ****             }    
 107:main.c        ****         }
 108:main.c        ****         
 109:main.c        ****     }
 110:main.c        ****     
 111:main.c        **** }
 112:main.c        **** 
 113:main.c        **** 
 114:main.c        **** //=============================================================================
 115:main.c        **** // Exponential averaging
 116:main.c        **** // it is provided for comparisen with the median filter
 117:main.c        **** //=============================================================================
 118:main.c        **** 
ARM GAS  C:\Users\karth\AppData\Local\Temp\cckEKglN.s 			page 5


 119:main.c        **** int32 LowPassFilter(int32 input)
 120:main.c        **** {
 111              		.loc 1 120 0
 112              		.cfi_startproc
 113              		@ args = 0, pretend = 0, frame = 0
 114              		@ frame_needed = 0, uses_anonymous_args = 0
 115              		@ link register save eliminated.
 116              	.LVL7:
 121:main.c        ****     static int32 Filter_Acc; // IIR accumulator
 122:main.c        ****     
 123:main.c        ****     int32 k;
 124:main.c        ****     input <<= 8;
 125:main.c        ****     Filter_Acc = Filter_Acc + (((input-Filter_Acc) >> 8) * 8);// factor 8/256
 117              		.loc 1 125 0
 118 0000 064A     		ldr	r2, .L10
 119 0002 9368     		ldr	r3, [r2, #8]
 120 0004 C3EB0020 		rsb	r0, r3, r0, lsl #8
 121              	.LVL8:
 122 0008 0012     		asrs	r0, r0, #8
 123 000a 03EBC000 		add	r0, r3, r0, lsl #3
 124 000e 9060     		str	r0, [r2, #8]
 126:main.c        **** //    Filter_Acc = Filter_Acc + ((input-Filter_Acc) >> 8);// factor 1/256
 127:main.c        ****     k = (Filter_Acc>>8) + ((Filter_Acc & 0x00000080) >> 7);
 125              		.loc 1 127 0
 126 0010 C0F3C013 		ubfx	r3, r0, #7, #1
 127              	.LVL9:
 128:main.c        ****     return k;
 129:main.c        **** }
 128              		.loc 1 129 0
 129 0014 03EB2020 		add	r0, r3, r0, asr #8
 130              	.LVL10:
 131 0018 7047     		bx	lr
 132              	.L11:
 133 001a 00BF     		.align	2
 134              	.L10:
 135 001c 00000000 		.word	.LANCHOR0
 136              		.cfi_endproc
 137              	.LFE66:
 138              		.size	LowPassFilter, .-LowPassFilter
 139              		.section	.text.main,"ax",%progbits
 140              		.align	2
 141              		.global	main
 142              		.thumb
 143              		.thumb_func
 144              		.type	main, %function
 145              	main:
 146              	.LFB65:
  73:main.c        ****     Init();
 147              		.loc 1 73 0
 148              		.cfi_startproc
 149              		@ args = 0, pretend = 0, frame = 0
 150              		@ frame_needed = 0, uses_anonymous_args = 0
 151 0000 38B5     		push	{r3, r4, r5, lr}
 152              		.cfi_def_cfa_offset 16
 153              		.cfi_offset 3, -16
 154              		.cfi_offset 4, -12
 155              		.cfi_offset 5, -8
ARM GAS  C:\Users\karth\AppData\Local\Temp\cckEKglN.s 			page 6


 156              		.cfi_offset 14, -4
  74:main.c        **** 
 157              		.loc 1 74 0
 158 0002 FFF7FEFF 		bl	Init
 159              	.LVL11:
 160              	.L14:
  79:main.c        ****         {
 161              		.loc 1 79 0
 162 0006 1A4B     		ldr	r3, .L18
 163 0008 1B78     		ldrb	r3, [r3]	@ zero_extendqisi2
 164 000a 13F0FF0F 		tst	r3, #255
 165 000e 14D0     		beq	.L13
 166              	.LBB2:
  81:main.c        ****             //BlinkLED();
 167              		.loc 1 81 0
 168 0010 174C     		ldr	r4, .L18
 169 0012 0023     		movs	r3, #0
 170 0014 2370     		strb	r3, [r4]
  84:main.c        ****             
 171              		.loc 1 84 0
 172 0016 6368     		ldr	r3, [r4, #4]
 173 0018 E268     		ldr	r2, [r4, #12]
 174 001a 9B1A     		subs	r3, r3, r2
 175 001c 6360     		str	r3, [r4, #4]
  86:main.c        ****             Med_filter = Filter_1_AddValue(ADC_1_result);
 176              		.loc 1 86 0
 177 001e 6068     		ldr	r0, [r4, #4]
 178 0020 FFF7FEFF 		bl	LowPassFilter
 179              	.LVL12:
 180 0024 0546     		mov	r5, r0
 181              	.LVL13:
  87:main.c        **** //            Vadc = ADC1_CountsTo_uVolts( ADC1_result );
 182              		.loc 1 87 0
 183 0026 6068     		ldr	r0, [r4, #4]
 184              	.LVL14:
 185 0028 FFF7FEFF 		bl	Filter_1_AddValue
 186              	.LVL15:
 187 002c 0246     		mov	r2, r0
 188 002e 114B     		ldr	r3, .L18+4
 189 0030 1860     		str	r0, [r3]
  93:main.c        ****         }
 190              		.loc 1 93 0
 191 0032 6068     		ldr	r0, [r4, #4]
 192 0034 2946     		mov	r1, r5
 193 0036 FFF7FEFF 		bl	Chart_1_Plot
 194              	.LVL16:
 195              	.L13:
 196              	.LBE2:
  97:main.c        ****         {
 197              		.loc 1 97 0
 198 003a 0F4B     		ldr	r3, .L18+8
 199 003c 1B68     		ldr	r3, [r3]
 200 003e 002B     		cmp	r3, #0
 201 0040 E1D0     		beq	.L14
 202              	.LBB3:
  99:main.c        ****             Button_1_Pressed = 0;                           // clear flag
 203              		.loc 1 99 0
ARM GAS  C:\Users\karth\AppData\Local\Temp\cckEKglN.s 			page 7


 204 0042 0D4B     		ldr	r3, .L18+8
 205 0044 1A68     		ldr	r2, [r3]
 206              	.LVL17:
 100:main.c        ****             
 207              		.loc 1 100 0
 208 0046 0021     		movs	r1, #0
 209 0048 1960     		str	r1, [r3]
 102:main.c        ****             {
 210              		.loc 1 102 0
 211 004a 12F0010F 		tst	r2, #1
 212 004e DAD0     		beq	.L14
 104:main.c        ****                 ADC_Offset += Med_filter; // tare: update offset to zero output 
 213              		.loc 1 104 0
 214 0050 0120     		movs	r0, #1
 215 0052 FFF7FEFF 		bl	Pin_LED_Write
 216              	.LVL18:
 217 0056 1E20     		movs	r0, #30
 218 0058 FFF7FEFF 		bl	CyDelayUs
 219              	.LVL19:
 220 005c 0020     		movs	r0, #0
 221 005e FFF7FEFF 		bl	Pin_LED_Write
 222              	.LVL20:
 105:main.c        ****             }    
 223              		.loc 1 105 0
 224 0062 034A     		ldr	r2, .L18
 225 0064 D168     		ldr	r1, [r2, #12]
 226 0066 034B     		ldr	r3, .L18+4
 227 0068 1B68     		ldr	r3, [r3]
 228 006a 0B44     		add	r3, r3, r1
 229 006c D360     		str	r3, [r2, #12]
 230 006e CAE7     		b	.L14
 231              	.L19:
 232              		.align	2
 233              	.L18:
 234 0070 00000000 		.word	.LANCHOR0
 235 0074 00000000 		.word	Med_filter
 236 0078 00000000 		.word	Button_1_Pressed
 237              	.LBE3:
 238              		.cfi_endproc
 239              	.LFE65:
 240              		.size	main, .-main
 241              		.global	ADC_Offset
 242              		.comm	Med_filter,4,4
 243              		.comm	Button_1_Pressed,4,4
 244              		.bss
 245              		.align	2
 246              		.set	.LANCHOR0,. + 0
 247              		.type	isrADC_flag, %object
 248              		.size	isrADC_flag, 1
 249              	isrADC_flag:
 250 0000 00       		.space	1
 251 0001 000000   		.space	3
 252              		.type	ADC_1_result, %object
 253              		.size	ADC_1_result, 4
 254              	ADC_1_result:
 255 0004 00000000 		.space	4
 256              		.type	Filter_Acc.5935, %object
ARM GAS  C:\Users\karth\AppData\Local\Temp\cckEKglN.s 			page 8


 257              		.size	Filter_Acc.5935, 4
 258              	Filter_Acc.5935:
 259 0008 00000000 		.space	4
 260              		.type	ADC_Offset, %object
 261              		.size	ADC_Offset, 4
 262              	ADC_Offset:
 263 000c 00000000 		.space	4
 264              		.text
 265              	.Letext0:
 266              		.file 2 "c:\\program files (x86)\\cypress\\psoc creator\\4.2\\psoc creator\\import\\gnu\\arm\\5.4.
 267              		.file 3 "c:\\program files (x86)\\cypress\\psoc creator\\4.2\\psoc creator\\import\\gnu\\arm\\5.4.
 268              		.file 4 "Generated_Source\\PSoC5/cytypes.h"
 269              		.file 5 "Generated_Source\\PSoC5/core_cm3.h"
 270              		.file 6 "Generated_Source\\PSoC5/Button_1.h"
 271              		.file 7 "Generated_Source\\PSoC5/ADC_1.h"
 272              		.file 8 "Generated_Source\\PSoC5/UART_1.h"
 273              		.file 9 "Generated_Source\\PSoC5/CyLib.h"
 274              		.file 10 "Generated_Source\\PSoC5/isrADC.h"
 275              		.file 11 "Generated_Source\\PSoC5/Filter_1.h"
 276              		.file 12 "Generated_Source\\PSoC5/Chart_1.h"
 277              		.file 13 "Generated_Source\\PSoC5/Pin_LED.h"